
main.elf:     file format elf32-littlearm
architecture: armv5te, flags 0x00000012:
EXEC_P, HAS_SYMS
start address 0x00001900

Sections:
Idx Name          Size      VMA       LMA       File off  Algn
  0 .text         00000370  00001900  00001900  00000054  2**2
                  CONTENTS, ALLOC, LOAD, CODE
  1 .data         00020488  00001c70  00001c70  000003c4  2**2
                  CONTENTS, ALLOC, LOAD, DATA
  2 .bss          00000008  000220f8  000220f8  0002084c  2**0
                  ALLOC

Disassembly of section .text:

00001900 <_start>:
    1900:	e3a0dc19 	mov	sp, #6400	; 0x1900
    1904:	eb000078 	bl	1aec <check_compat>
    1908:	e3a0dc19 	mov	sp, #6400	; 0x1900
    190c:	e3a0b000 	mov	fp, #0
    1910:	ea000095 	b	1b6c <my_restart>

00001914 <set_led>:
    1914:	e3520002 	cmp	r2, #2
    1918:	1a000006 	bne	1938 <set_led+0x24>
    191c:	e5903000 	ldr	r3, [r0]
    1920:	e3c33030 	bic	r3, r3, #48	; 0x30
    1924:	e3510000 	cmp	r1, #0
    1928:	03a01020 	moveq	r1, #32
    192c:	13a01000 	movne	r1, #0
    1930:	e1811003 	orr	r1, r1, r3
    1934:	ea000014 	b	198c <set_led+0x78>
    1938:	e3520003 	cmp	r2, #3
    193c:	059f2050 	ldreq	r2, [pc, #80]	; 1994 <set_led+0x80>
    1940:	059f3050 	ldreq	r3, [pc, #80]	; 1998 <set_led+0x84>
    1944:	0a000007 	beq	1968 <set_led+0x54>
    1948:	e3520004 	cmp	r2, #4
    194c:	059f2048 	ldreq	r2, [pc, #72]	; 199c <set_led+0x88>
    1950:	059f3048 	ldreq	r3, [pc, #72]	; 19a0 <set_led+0x8c>
    1954:	0a000003 	beq	1968 <set_led+0x54>
    1958:	e3520005 	cmp	r2, #5
    195c:	1a000005 	bne	1978 <set_led+0x64>
    1960:	e59f203c 	ldr	r2, [pc, #60]	; 19a4 <set_led+0x90>
    1964:	e59f303c 	ldr	r3, [pc, #60]	; 19a8 <set_led+0x94>
    1968:	e3510000 	cmp	r1, #0
    196c:	11a01003 	movne	r1, r3
    1970:	01a01002 	moveq	r1, r2
    1974:	ea000004 	b	198c <set_led+0x78>
    1978:	e3520001 	cmp	r2, #1
    197c:	112fff1e 	bxne	lr
    1980:	e3510000 	cmp	r1, #0
    1984:	13a01046 	movne	r1, #70	; 0x46
    1988:	03a01044 	moveq	r1, #68	; 0x44
    198c:	e5801000 	str	r1, [r0]
    1990:	e12fff1e 	bx	lr
    1994:	0083dc00 	.word	0x0083dc00
    1998:	0093d800 	.word	0x0093d800
    199c:	004c0003 	.word	0x004c0003
    19a0:	004d0002 	.word	0x004d0002
    19a4:	024c0003 	.word	0x024c0003
    19a8:	024d0002 	.word	0x024d0002

000019ac <get_pid>:
    19ac:	e59f3038 	ldr	r3, [pc, #56]	; 19ec <get_pid+0x40>
    19b0:	e1d310b0 	ldrh	r1, [r3]
    19b4:	e1d3cab8 	ldrh	ip, [r3, #168]	; 0xa8
    19b8:	e3a02000 	mov	r2, #0
    19bc:	e0830002 	add	r0, r3, r2
    19c0:	e5900008 	ldr	r0, [r0, #8]
    19c4:	e1d000b0 	ldrh	r0, [r0]
    19c8:	e1500001 	cmp	r0, r1
    19cc:	3a000001 	bcc	19d8 <get_pid+0x2c>
    19d0:	e150000c 	cmp	r0, ip
    19d4:	912fff1e 	bxls	lr
    19d8:	e282200c 	add	r2, r2, #12
    19dc:	e35200b4 	cmp	r2, #180	; 0xb4
    19e0:	1afffff5 	bne	19bc <get_pid+0x10>
    19e4:	e3a00000 	mov	r0, #0
    19e8:	e12fff1e 	bx	lr
    19ec:	00022034 	.word	0x00022034

000019f0 <blink>:
    19f0:	e92d4070 	push	{r4, r5, r6, lr}
    19f4:	e3a03000 	mov	r3, #0
    19f8:	e59f1084 	ldr	r1, [pc, #132]	; 1a84 <blink+0x94>
    19fc:	e3a0c00c 	mov	ip, #12
    1a00:	e002039c 	mul	r2, ip, r3
    1a04:	e192e0b1 	ldrh	lr, [r2, r1]
    1a08:	e15e0000 	cmp	lr, r0
    1a0c:	1a000006 	bne	1a2c <blink+0x3c>
    1a10:	e59f306c 	ldr	r3, [pc, #108]	; 1a84 <blink+0x94>
    1a14:	e0833002 	add	r3, r3, r2
    1a18:	e5934004 	ldr	r4, [r3, #4]
    1a1c:	e1d350f2 	ldrsh	r5, [r3, #2]
    1a20:	e3540000 	cmp	r4, #0
    1a24:	1a000010 	bne	1a6c <blink+0x7c>
    1a28:	ea000002 	b	1a38 <blink+0x48>
    1a2c:	e2833001 	add	r3, r3, #1
    1a30:	e353000f 	cmp	r3, #15
    1a34:	1afffff1 	bne	1a00 <blink+0x10>
    1a38:	eafffffe 	b	1a38 <blink+0x48>
    1a3c:	e1a00000 	nop			; (mov r0, r0)
    1a40:	e1a00000 	nop			; (mov r0, r0)
    1a44:	e2511001 	subs	r1, r1, #1
    1a48:	1afffffb 	bne	1a3c <blink+0x4c>
    1a4c:	e1a02005 	mov	r2, r5
    1a50:	e1a00004 	mov	r0, r4
    1a54:	ebffffae 	bl	1914 <set_led>
    1a58:	e59f3028 	ldr	r3, [pc, #40]	; 1a88 <blink+0x98>
    1a5c:	e1a00000 	nop			; (mov r0, r0)
    1a60:	e1a00000 	nop			; (mov r0, r0)
    1a64:	e2533001 	subs	r3, r3, #1
    1a68:	1afffffb 	bne	1a5c <blink+0x6c>
    1a6c:	e1a02005 	mov	r2, r5
    1a70:	e3a01001 	mov	r1, #1
    1a74:	e1a00004 	mov	r0, r4
    1a78:	ebffffa5 	bl	1914 <set_led>
    1a7c:	e59f1004 	ldr	r1, [pc, #4]	; 1a88 <blink+0x98>
    1a80:	eaffffed 	b	1a3c <blink+0x4c>
    1a84:	00022034 	.word	0x00022034
    1a88:	00989680 	.word	0x00989680

00001a8c <ver_cmp>:
    1a8c:	e2400001 	sub	r0, r0, #1
    1a90:	e2411001 	sub	r1, r1, #1
    1a94:	e5f03001 	ldrb	r3, [r0, #1]!
    1a98:	e5f12001 	ldrb	r2, [r1, #1]!
    1a9c:	e1520003 	cmp	r2, r3
    1aa0:	1a000001 	bne	1aac <ver_cmp+0x20>
    1aa4:	e3530000 	cmp	r3, #0
    1aa8:	1afffff9 	bne	1a94 <ver_cmp+0x8>
    1aac:	e16f0f13 	clz	r0, r3
    1ab0:	e1a002a0 	lsr	r0, r0, #5
    1ab4:	e12fff1e 	bx	lr

00001ab8 <check_pid>:
    1ab8:	e59f3028 	ldr	r3, [pc, #40]	; 1ae8 <check_pid+0x30>
    1abc:	e59320b4 	ldr	r2, [r3, #180]	; 0xb4
    1ac0:	e1d220f0 	ldrsh	r2, [r2]
    1ac4:	e1d30bf8 	ldrsh	r0, [r3, #184]	; 0xb8
    1ac8:	e1500002 	cmp	r0, r2
    1acc:	0a000002 	beq	1adc <check_pid+0x24>
    1ad0:	e92d4010 	push	{r4, lr}
    1ad4:	ebffffb4 	bl	19ac <get_pid>
    1ad8:	ebffffc4 	bl	19f0 <blink>
    1adc:	e1a00800 	lsl	r0, r0, #16
    1ae0:	e1a00820 	lsr	r0, r0, #16
    1ae4:	e12fff1e 	bx	lr
    1ae8:	00022034 	.word	0x00022034

00001aec <check_compat>:
    1aec:	e92d4010 	push	{r4, lr}
    1af0:	ebfffff0 	bl	1ab8 <check_pid>
    1af4:	e1a04000 	mov	r4, r0
    1af8:	e59f3018 	ldr	r3, [pc, #24]	; 1b18 <check_compat+0x2c>
    1afc:	e59310bc 	ldr	r1, [r3, #188]	; 0xbc
    1b00:	e59300c0 	ldr	r0, [r3, #192]	; 0xc0
    1b04:	ebffffe0 	bl	1a8c <ver_cmp>
    1b08:	e3500000 	cmp	r0, #0
    1b0c:	18bd8010 	popne	{r4, pc}
    1b10:	e1a00004 	mov	r0, r4
    1b14:	ebffffb5 	bl	19f0 <blink>
    1b18:	00022034 	.word	0x00022034

00001b1c <core_copy>:
    1b1c:	e1500001 	cmp	r0, r1
    1b20:	3a000001 	bcc	1b2c <core_copy+0x10>
    1b24:	e2411004 	sub	r1, r1, #4
    1b28:	ea00000a 	b	1b58 <core_copy+0x3c>
    1b2c:	e1a03102 	lsl	r3, r2, #2
    1b30:	e080c003 	add	ip, r0, r3
    1b34:	e151000c 	cmp	r1, ip
    1b38:	30433102 	subcc	r3, r3, r2, lsl #2
    1b3c:	30811003 	addcc	r1, r1, r3
    1b40:	2afffff7 	bcs	1b24 <core_copy+0x8>
    1b44:	e2522001 	subs	r2, r2, #1
    1b48:	253c3004 	ldrcs	r3, [ip, #-4]!
    1b4c:	27813102 	strcs	r3, [r1, r2, lsl #2]
    1b50:	2afffffb 	bcs	1b44 <core_copy+0x28>
    1b54:	e12fff1e 	bx	lr
    1b58:	e2522001 	subs	r2, r2, #1
    1b5c:	24903004 	ldrcs	r3, [r0], #4
    1b60:	25a13004 	strcs	r3, [r1, #4]!
    1b64:	2afffffb 	bcs	1b58 <core_copy+0x3c>
    1b68:	e12fff1e 	bx	lr

00001b6c <my_restart>:
    1b6c:	e92d4010 	push	{r4, lr}
    1b70:	e59f30d8 	ldr	r3, [pc, #216]	; 1c50 <my_restart+0xe4>
    1b74:	e5932000 	ldr	r2, [r3]
    1b78:	e2822003 	add	r2, r2, #3
    1b7c:	e59f50d0 	ldr	r5, [pc, #208]	; 1c54 <my_restart+0xe8>
    1b80:	e1a02142 	asr	r2, r2, #2
    1b84:	e1a01005 	mov	r1, r5
    1b88:	e59f30c8 	ldr	r3, [pc, #200]	; 1c58 <my_restart+0xec>
    1b8c:	e5930000 	ldr	r0, [r3]
    1b90:	ebffffe1 	bl	1b1c <core_copy>
    1b94:	e10f0000 	mrs	r0, CPSR
    1b98:	e3c0003f 	bic	r0, r0, #63	; 0x3f
    1b9c:	e38000d3 	orr	r0, r0, #211	; 0xd3
    1ba0:	e129f000 	msr	CPSR_fc, r0
    1ba4:	e59f10b4 	ldr	r1, [pc, #180]	; 1c60 <my_restart+0xf4>
    1ba8:	e3e00000 	mvn	r0, #0
    1bac:	e581010c 	str	r0, [r1, #268]	; 0x10c
    1bb0:	e581000c 	str	r0, [r1, #12]
    1bb4:	e581001c 	str	r0, [r1, #28]
    1bb8:	e581002c 	str	r0, [r1, #44]	; 0x2c
    1bbc:	e581003c 	str	r0, [r1, #60]	; 0x3c
    1bc0:	e581004c 	str	r0, [r1, #76]	; 0x4c
    1bc4:	e581005c 	str	r0, [r1, #92]	; 0x5c
    1bc8:	e581006c 	str	r0, [r1, #108]	; 0x6c
    1bcc:	e581007c 	str	r0, [r1, #124]	; 0x7c
    1bd0:	e581008c 	str	r0, [r1, #140]	; 0x8c
    1bd4:	e581009c 	str	r0, [r1, #156]	; 0x9c
    1bd8:	e58100ac 	str	r0, [r1, #172]	; 0xac
    1bdc:	e58100bc 	str	r0, [r1, #188]	; 0xbc
    1be0:	e58100cc 	str	r0, [r1, #204]	; 0xcc
    1be4:	e58100dc 	str	r0, [r1, #220]	; 0xdc
    1be8:	e58100ec 	str	r0, [r1, #236]	; 0xec
    1bec:	e3540007 	cmp	r4, #7
    1bf0:	e58100fc 	str	r0, [r1, #252]	; 0xfc
    1bf4:	08bd8010 	popeq	{r4, pc}
    1bf8:	e3a00078 	mov	r0, #120	; 0x78
    1bfc:	ee010f10 	mcr	15, 0, r0, cr1, cr0, {0}
    1c00:	e3a00000 	mov	r0, #0
    1c04:	ee070f9a 	mcr	15, 0, r0, cr7, cr10, {4}
    1c08:	ee070f15 	mcr	15, 0, r0, cr7, cr5, {0}
    1c0c:	ee070f16 	mcr	15, 0, r0, cr7, cr6, {0}
    1c10:	e3a0011a 	mov	r0, #-2147483642	; 0x80000006
    1c14:	ee090f11 	mcr	15, 0, r0, cr9, cr1, {0}
    1c18:	ee090f31 	mcr	15, 0, r0, cr9, cr1, {1}
    1c1c:	ee110f10 	mrc	15, 0, r0, cr1, cr0, {0}
    1c20:	e3800805 	orr	r0, r0, #327680	; 0x50000
    1c24:	ee010f10 	mcr	15, 0, r0, cr1, cr0, {0}
    1c28:	e59f0034 	ldr	r0, [pc, #52]	; 1c64 <my_restart+0xf8>
    1c2c:	e3a01102 	mov	r1, #-2147483648	; 0x80000000
    1c30:	e5810ffc 	str	r0, [r1, #4092]	; 0xffc
    1c34:	e1a00005 	mov	r0, r5
    1c38:	e8bd4010 	pop	{r4, lr}
    1c3c:	e12fff10 	bx	r0
    1c40:	e3a02046 	mov	r2, #70	; 0x46
    1c44:	e59f3010 	ldr	r3, [pc, #16]	; 1c5c <my_restart+0xf0>
    1c48:	e5832030 	str	r2, [r3, #48]	; 0x30
    1c4c:	eafffffe 	b	1c4c <my_restart+0xe0>
    1c50:	00001c68 	.word	0x00001c68
    1c54:	0030e000 	.word	0x0030e000
    1c58:	00001c6c 	.word	0x00001c6c
    1c5c:	c0223000 	.word	0xc0223000
    1c60:	c0200000 	.word	0xc0200000
    1c64:	12345678 	.word	0x12345678

00001c68 <blob_chdk_core_size>:
    1c68:	000203b0 	.word	0x000203b0

00001c6c <blob_chdk_core>:
    1c6c:	00001c84 	.word	0x00001c84
