
main.elf:     file format elf32-littlearm
architecture: armv5te, flags 0x00000012:
EXEC_P, HAS_SYMS
start address 0x0030e000

Sections:
Idx Name          Size      VMA       LMA       File off  Algn
  0 .text         00015ea8  0030e000  0030e000  00000058  2**3
                  CONTENTS, ALLOC, LOAD, READONLY, CODE
  2 .data         0000a3d0  00324028  00324028  00016080  2**2
                  CONTENTS, ALLOC, LOAD, DATA
  3 .bss          000036c8  0032e3f8  0032e3f8  00020450  2**2
                  ALLOC

Disassembly of section .text:

0030e000 <_start>:
  30e000:	e3a00002 	mov	r0, #2
  30e004:	e3300002 	teq	r0, #2
  30e008:	e3a0dc19 	mov	sp, #6400	; 0x1900
  30e00c:	e3a0b000 	mov	fp, #0
  30e010:	eaffffff 	b	30e014 <startup>

0030e014 <startup>:
  30e014:	e92d4010 	push	{r4, lr}
  30e018:	e59f303c 	ldr	r3, [pc, #60]	; 30e05c <startup+0x48>
  30e01c:	e59f103c 	ldr	r1, [pc, #60]	; 30e060 <startup+0x4c>
  30e020:	e59f203c 	ldr	r2, [pc, #60]	; 30e064 <startup+0x50>
  30e024:	e0612002 	rsb	r2, r1, r2
  30e028:	e1520003 	cmp	r2, r3
  30e02c:	a59f2034 	ldrge	r2, [pc, #52]	; 30e068 <startup+0x54>
  30e030:	a3a01000 	movge	r1, #0
  30e034:	aa000002 	bge	30e044 <startup+0x30>
  30e038:	e3a00001 	mov	r0, #1
  30e03c:	eb000054 	bl	30e194 <debug_led>
  30e040:	eb00004a 	bl	30e170 <shutdown>
  30e044:	e1520003 	cmp	r2, r3
  30e048:	34821004 	strcc	r1, [r2], #4
  30e04c:	3afffffc 	bcc	30e044 <startup+0x30>
  30e050:	eb000155 	bl	30e5ac <boot>
  30e054:	e8bd4010 	pop	{r4, lr}
  30e058:	e12fff1e 	bx	lr
  30e05c:	00331ac0 	.word	0x00331ac0
  30e060:	0030e000 	.word	0x0030e000
  30e064:	0063fac0 	.word	0x0063fac0
  30e068:	0032e3f8 	.word	0x0032e3f8

0030e06c <get_focal_length>:
  30e06c:	e3500000 	cmp	r0, #0
  30e070:	ba000004 	blt	30e088 <get_focal_length+0x1c>
  30e074:	e3500009 	cmp	r0, #9
  30e078:	ca000004 	bgt	30e090 <get_focal_length+0x24>
  30e07c:	e59f3014 	ldr	r3, [pc, #20]	; 30e098 <get_focal_length+0x2c>
  30e080:	e7930100 	ldr	r0, [r3, r0, lsl #2]
  30e084:	e12fff1e 	bx	lr
  30e088:	e59f000c 	ldr	r0, [pc, #12]	; 30e09c <get_focal_length+0x30>
  30e08c:	e12fff1e 	bx	lr
  30e090:	e59f0008 	ldr	r0, [pc, #8]	; 30e0a0 <get_focal_length+0x34>
  30e094:	e12fff1e 	bx	lr
  30e098:	00324028 	.word	0x00324028
  30e09c:	00001388 	.word	0x00001388
  30e0a0:	00004e1e 	.word	0x00004e1e

0030e0a4 <get_effective_focal_length>:
  30e0a4:	e92d4010 	push	{r4, lr}
  30e0a8:	ebffffef 	bl	30e06c <get_focal_length>
  30e0ac:	e59f1010 	ldr	r1, [pc, #16]	; 30e0c4 <get_effective_focal_length+0x20>
  30e0b0:	e59f3010 	ldr	r3, [pc, #16]	; 30e0c8 <get_effective_focal_length+0x24>
  30e0b4:	e0000093 	mul	r0, r3, r0
  30e0b8:	eb004a86 	bl	320ad8 <__divsi3>
  30e0bc:	e8bd4010 	pop	{r4, lr}
  30e0c0:	e12fff1e 	bx	lr
  30e0c4:	00002710 	.word	0x00002710
  30e0c8:	0000dac0 	.word	0x0000dac0

0030e0cc <get_zoom_x>:
  30e0cc:	e3500000 	cmp	r0, #0
  30e0d0:	da00000a 	ble	30e100 <get_zoom_x+0x34>
  30e0d4:	e3500009 	cmp	r0, #9
  30e0d8:	ca00000a 	bgt	30e108 <get_zoom_x+0x3c>
  30e0dc:	e92d4010 	push	{r4, lr}
  30e0e0:	e59f3028 	ldr	r3, [pc, #40]	; 30e110 <get_zoom_x+0x44>
  30e0e4:	e7933100 	ldr	r3, [r3, r0, lsl #2]
  30e0e8:	e59f1024 	ldr	r1, [pc, #36]	; 30e114 <get_zoom_x+0x48>
  30e0ec:	e3a0000a 	mov	r0, #10
  30e0f0:	e0000093 	mul	r0, r3, r0
  30e0f4:	eb004a77 	bl	320ad8 <__divsi3>
  30e0f8:	e8bd4010 	pop	{r4, lr}
  30e0fc:	e12fff1e 	bx	lr
  30e100:	e3a0000a 	mov	r0, #10
  30e104:	e12fff1e 	bx	lr
  30e108:	e3a00027 	mov	r0, #39	; 0x27
  30e10c:	e12fff1e 	bx	lr
  30e110:	00324028 	.word	0x00324028
  30e114:	00001388 	.word	0x00001388

0030e118 <get_vbatt_min>:
  30e118:	e59f0000 	ldr	r0, [pc]	; 30e120 <get_vbatt_min+0x8>
  30e11c:	e12fff1e 	bx	lr
  30e120:	00000cc1 	.word	0x00000cc1

0030e124 <get_vbatt_max>:
  30e124:	e59f0000 	ldr	r0, [pc]	; 30e12c <get_vbatt_max+0x8>
  30e128:	e12fff1e 	bx	lr
  30e12c:	00000fe1 	.word	0x00000fe1

0030e130 <vid_bitmap_refresh>:
  30e130:	e92d4070 	push	{r4, r5, r6, lr}
  30e134:	e59f4030 	ldr	r4, [pc, #48]	; 30e16c <vid_bitmap_refresh+0x3c>
  30e138:	e5945000 	ldr	r5, [r4]
  30e13c:	e3550000 	cmp	r5, #0
  30e140:	13a03001 	movne	r3, #1
  30e144:	15843000 	strne	r3, [r4]
  30e148:	0b000573 	bleq	30f71c <_ScreenLock>
  30e14c:	e3a00001 	mov	r0, #1
  30e150:	eb000469 	bl	30f2fc <_RefreshPhysicalScreen>
  30e154:	e3550000 	cmp	r5, #0
  30e158:	da000001 	ble	30e164 <vid_bitmap_refresh+0x34>
  30e15c:	eb00056e 	bl	30f71c <_ScreenLock>
  30e160:	e5845000 	str	r5, [r4]
  30e164:	e8bd4070 	pop	{r4, r5, r6, lr}
  30e168:	e12fff1e 	bx	lr
  30e16c:	0000b298 	.word	0x0000b298

0030e170 <shutdown>:
  30e170:	e10f1000 	mrs	r1, CPSR
  30e174:	e2010080 	and	r0, r1, #128	; 0x80
  30e178:	e3811080 	orr	r1, r1, #128	; 0x80
  30e17c:	e129f001 	msr	CPSR_fc, r1
  30e180:	e3a02044 	mov	r2, #68	; 0x44
  30e184:	e59f3004 	ldr	r3, [pc, #4]	; 30e190 <shutdown+0x20>
  30e188:	e583201c 	str	r2, [r3, #28]
  30e18c:	eafffffe 	b	30e18c <shutdown+0x1c>
  30e190:	c0220000 	.word	0xc0220000

0030e194 <debug_led>:
  30e194:	e3500000 	cmp	r0, #0
  30e198:	13a00046 	movne	r0, #70	; 0x46
  30e19c:	03a00044 	moveq	r0, #68	; 0x44
  30e1a0:	e59f3004 	ldr	r3, [pc, #4]	; 30e1ac <debug_led+0x18>
  30e1a4:	e58300d4 	str	r0, [r3, #212]	; 0xd4
  30e1a8:	e12fff1e 	bx	lr
  30e1ac:	c0220000 	.word	0xc0220000

0030e1b0 <camera_set_led>:
  30e1b0:	e3510000 	cmp	r1, #0
  30e1b4:	13a01046 	movne	r1, #70	; 0x46
  30e1b8:	03a01044 	moveq	r1, #68	; 0x44
  30e1bc:	e2400004 	sub	r0, r0, #4
  30e1c0:	e3500005 	cmp	r0, #5
  30e1c4:	979ff100 	ldrls	pc, [pc, r0, lsl #2]
  30e1c8:	ea000030 	b	30e290 <camera_set_led+0xe0>
  30e1cc:	0030e1e4 	.word	0x0030e1e4
  30e1d0:	0030e200 	.word	0x0030e200
  30e1d4:	0030e290 	.word	0x0030e290
  30e1d8:	0030e244 	.word	0x0030e244
  30e1dc:	0030e27c 	.word	0x0030e27c
  30e1e0:	0030e288 	.word	0x0030e288
  30e1e4:	e59f30a8 	ldr	r3, [pc, #168]	; 30e294 <camera_set_led+0xe4>
  30e1e8:	e1d320b2 	ldrh	r2, [r3, #2]
  30e1ec:	e1c310b2 	strh	r1, [r3, #2]
  30e1f0:	e1a01821 	lsr	r1, r1, #16
  30e1f4:	e1d320b4 	ldrh	r2, [r3, #4]
  30e1f8:	e1c310b4 	strh	r1, [r3, #4]
  30e1fc:	e12fff1e 	bx	lr
  30e200:	e59f3090 	ldr	r3, [pc, #144]	; 30e298 <camera_set_led+0xe8>
  30e204:	e59f2088 	ldr	r2, [pc, #136]	; 30e294 <camera_set_led+0xe4>
  30e208:	e1d200b2 	ldrh	r0, [r2, #2]
  30e20c:	e1c210b2 	strh	r1, [r2, #2]
  30e210:	e1a02821 	lsr	r2, r1, #16
  30e214:	e59f0080 	ldr	r0, [pc, #128]	; 30e29c <camera_set_led+0xec>
  30e218:	e1d0c0b0 	ldrh	ip, [r0]
  30e21c:	e1c020b0 	strh	r2, [r0]
  30e220:	e20100ff 	and	r0, r1, #255	; 0xff
  30e224:	e5d3c133 	ldrb	ip, [r3, #307]	; 0x133
  30e228:	e5c30133 	strb	r0, [r3, #307]	; 0x133
  30e22c:	e5d30134 	ldrb	r0, [r3, #308]	; 0x134
  30e230:	e3a00000 	mov	r0, #0
  30e234:	e5c30134 	strb	r0, [r3, #308]	; 0x134
  30e238:	e20220ff 	and	r2, r2, #255	; 0xff
  30e23c:	e5d30135 	ldrb	r0, [r3, #309]	; 0x135
  30e240:	ea000008 	b	30e268 <camera_set_led+0xb8>
  30e244:	e59f304c 	ldr	r3, [pc, #76]	; 30e298 <camera_set_led+0xe8>
  30e248:	e20120ff 	and	r2, r1, #255	; 0xff
  30e24c:	e5d30133 	ldrb	r0, [r3, #307]	; 0x133
  30e250:	e5c32133 	strb	r2, [r3, #307]	; 0x133
  30e254:	e5d32134 	ldrb	r2, [r3, #308]	; 0x134
  30e258:	e3a02000 	mov	r2, #0
  30e25c:	e5c32134 	strb	r2, [r3, #308]	; 0x134
  30e260:	e5d32135 	ldrb	r2, [r3, #309]	; 0x135
  30e264:	e3a02000 	mov	r2, #0
  30e268:	e5c32135 	strb	r2, [r3, #309]	; 0x135
  30e26c:	e1a01c21 	lsr	r1, r1, #24
  30e270:	e5d32136 	ldrb	r2, [r3, #310]	; 0x136
  30e274:	e5c31136 	strb	r1, [r3, #310]	; 0x136
  30e278:	e12fff1e 	bx	lr
  30e27c:	e59f3014 	ldr	r3, [pc, #20]	; 30e298 <camera_set_led+0xe8>
  30e280:	e58310d4 	str	r1, [r3, #212]	; 0xd4
  30e284:	e12fff1e 	bx	lr
  30e288:	e59f3010 	ldr	r3, [pc, #16]	; 30e2a0 <camera_set_led+0xf0>
  30e28c:	e5831030 	str	r1, [r3, #48]	; 0x30
  30e290:	e12fff1e 	bx	lr
  30e294:	c0220134 	.word	0xc0220134
  30e298:	c0220000 	.word	0xc0220000
  30e29c:	c0220138 	.word	0xc0220138
  30e2a0:	c0223000 	.word	0xc0223000

0030e2a4 <get_flash_params_count>:
  30e2a4:	e3a00078 	mov	r0, #120	; 0x78
  30e2a8:	e12fff1e 	bx	lr

0030e2ac <JogDial_CW>:
  30e2ac:	e92d4010 	push	{r4, lr}
  30e2b0:	e3a01001 	mov	r1, #1
  30e2b4:	e59f0008 	ldr	r0, [pc, #8]	; 30e2c4 <JogDial_CW+0x18>
  30e2b8:	eb000408 	bl	30f2e0 <_PostLogicalEventForNotPowerType>
  30e2bc:	e8bd4010 	pop	{r4, lr}
  30e2c0:	e12fff1e 	bx	lr
  30e2c4:	00000874 	.word	0x00000874

0030e2c8 <JogDial_CCW>:
  30e2c8:	e92d4010 	push	{r4, lr}
  30e2cc:	e3a01001 	mov	r1, #1
  30e2d0:	e59f0008 	ldr	r0, [pc, #8]	; 30e2e0 <JogDial_CCW+0x18>
  30e2d4:	eb000401 	bl	30f2e0 <_PostLogicalEventForNotPowerType>
  30e2d8:	e8bd4010 	pop	{r4, lr}
  30e2dc:	e12fff1e 	bx	lr
  30e2e0:	00000875 	.word	0x00000875

0030e2e4 <vid_turn_off_updates>:
  30e2e4:	e92d4010 	push	{r4, lr}
  30e2e8:	eb00050b 	bl	30f71c <_ScreenLock>
  30e2ec:	e8bd4010 	pop	{r4, lr}
  30e2f0:	e12fff1e 	bx	lr

0030e2f4 <vid_turn_on_updates>:
  30e2f4:	e92d4010 	push	{r4, lr}
  30e2f8:	e3a00001 	mov	r0, #1
  30e2fc:	eb0003fe 	bl	30f2fc <_RefreshPhysicalScreen>
  30e300:	e8bd4010 	pop	{r4, lr}
  30e304:	e12fff1e 	bx	lr

0030e308 <taskCreateHook>:
  30e308:	e5102044 	ldr	r2, [r0, #-68]	; 0xffffffbc
  30e30c:	e59f3084 	ldr	r3, [pc, #132]	; 30e398 <taskCreateHook+0x90>
  30e310:	e1520003 	cmp	r2, r3
  30e314:	059f3080 	ldreq	r3, [pc, #128]	; 30e39c <taskCreateHook+0x94>
  30e318:	05003044 	streq	r3, [r0, #-68]	; 0xffffffbc
  30e31c:	e5102044 	ldr	r2, [r0, #-68]	; 0xffffffbc
  30e320:	e59f3078 	ldr	r3, [pc, #120]	; 30e3a0 <taskCreateHook+0x98>
  30e324:	e1520003 	cmp	r2, r3
  30e328:	059f3074 	ldreq	r3, [pc, #116]	; 30e3a4 <taskCreateHook+0x9c>
  30e32c:	05003044 	streq	r3, [r0, #-68]	; 0xffffffbc
  30e330:	e5102044 	ldr	r2, [r0, #-68]	; 0xffffffbc
  30e334:	e59f306c 	ldr	r3, [pc, #108]	; 30e3a8 <taskCreateHook+0xa0>
  30e338:	e1520003 	cmp	r2, r3
  30e33c:	059f3068 	ldreq	r3, [pc, #104]	; 30e3ac <taskCreateHook+0xa4>
  30e340:	05003044 	streq	r3, [r0, #-68]	; 0xffffffbc
  30e344:	e5102044 	ldr	r2, [r0, #-68]	; 0xffffffbc
  30e348:	e59f3060 	ldr	r3, [pc, #96]	; 30e3b0 <taskCreateHook+0xa8>
  30e34c:	e1520003 	cmp	r2, r3
  30e350:	059f305c 	ldreq	r3, [pc, #92]	; 30e3b4 <taskCreateHook+0xac>
  30e354:	05003044 	streq	r3, [r0, #-68]	; 0xffffffbc
  30e358:	e5102044 	ldr	r2, [r0, #-68]	; 0xffffffbc
  30e35c:	e59f3054 	ldr	r3, [pc, #84]	; 30e3b8 <taskCreateHook+0xb0>
  30e360:	e1520003 	cmp	r2, r3
  30e364:	059f3050 	ldreq	r3, [pc, #80]	; 30e3bc <taskCreateHook+0xb4>
  30e368:	05003044 	streq	r3, [r0, #-68]	; 0xffffffbc
  30e36c:	e5102044 	ldr	r2, [r0, #-68]	; 0xffffffbc
  30e370:	e59f3048 	ldr	r3, [pc, #72]	; 30e3c0 <taskCreateHook+0xb8>
  30e374:	e1520003 	cmp	r2, r3
  30e378:	059f3044 	ldreq	r3, [pc, #68]	; 30e3c4 <taskCreateHook+0xbc>
  30e37c:	05003044 	streq	r3, [r0, #-68]	; 0xffffffbc
  30e380:	e5102044 	ldr	r2, [r0, #-68]	; 0xffffffbc
  30e384:	e59f303c 	ldr	r3, [pc, #60]	; 30e3c8 <taskCreateHook+0xc0>
  30e388:	e1520003 	cmp	r2, r3
  30e38c:	059f3038 	ldreq	r3, [pc, #56]	; 30e3cc <taskCreateHook+0xc4>
  30e390:	05003044 	streq	r3, [r0, #-68]	; 0xffffffbc
  30e394:	e12fff1e 	bx	lr
  30e398:	ff861cfc 	.word	0xff861cfc
  30e39c:	0030f7ec 	.word	0x0030f7ec
  30e3a0:	ff821814 	.word	0xff821814
  30e3a4:	003235c0 	.word	0x003235c0
  30e3a8:	ff87c980 	.word	0xff87c980
  30e3ac:	0030e428 	.word	0x0030e428
  30e3b0:	ff846338 	.word	0xff846338
  30e3b4:	0030e464 	.word	0x0030e464
  30e3b8:	ff85e03c 	.word	0xff85e03c
  30e3bc:	0031063c 	.word	0x0031063c
  30e3c0:	ff8a4608 	.word	0xff8a4608
  30e3c4:	0030fc4c 	.word	0x0030fc4c
  30e3c8:	ffa1e5c0 	.word	0xffa1e5c0
  30e3cc:	00310ccc 	.word	0x00310ccc

0030e3d0 <taskCreateHook2>:
  30e3d0:	e5102044 	ldr	r2, [r0, #-68]	; 0xffffffbc
  30e3d4:	e59f3034 	ldr	r3, [pc, #52]	; 30e410 <taskCreateHook2+0x40>
  30e3d8:	e1520003 	cmp	r2, r3
  30e3dc:	059f3030 	ldreq	r3, [pc, #48]	; 30e414 <taskCreateHook2+0x44>
  30e3e0:	05003044 	streq	r3, [r0, #-68]	; 0xffffffbc
  30e3e4:	e5102044 	ldr	r2, [r0, #-68]	; 0xffffffbc
  30e3e8:	e59f3028 	ldr	r3, [pc, #40]	; 30e418 <taskCreateHook2+0x48>
  30e3ec:	e1520003 	cmp	r2, r3
  30e3f0:	059f3024 	ldreq	r3, [pc, #36]	; 30e41c <taskCreateHook2+0x4c>
  30e3f4:	05003044 	streq	r3, [r0, #-68]	; 0xffffffbc
  30e3f8:	e5102044 	ldr	r2, [r0, #-68]	; 0xffffffbc
  30e3fc:	e59f301c 	ldr	r3, [pc, #28]	; 30e420 <taskCreateHook2+0x50>
  30e400:	e1520003 	cmp	r2, r3
  30e404:	059f3018 	ldreq	r3, [pc, #24]	; 30e424 <taskCreateHook2+0x54>
  30e408:	05003044 	streq	r3, [r0, #-68]	; 0xffffffbc
  30e40c:	e12fff1e 	bx	lr
  30e410:	ff87c980 	.word	0xff87c980
  30e414:	0030e428 	.word	0x0030e428
  30e418:	ff8a4608 	.word	0xff8a4608
  30e41c:	0030fc4c 	.word	0x0030fc4c
  30e420:	ffa1e5c0 	.word	0xffa1e5c0
  30e424:	00310ccc 	.word	0x00310ccc

0030e428 <init_file_modules_task>:
  30e428:	e92d4070 	push	{r4, r5, r6, lr}
  30e42c:	eb00025b 	bl	30eda0 <sub_FF872048>
  30e430:	e59f5740 	ldr	r5, [pc, #1856]	; 30eb78 <loc_FF854E40+0x10>
  30e434:	e1b04000 	movs	r4, r0
  30e438:	13a01000 	movne	r1, #0
  30e43c:	11a00005 	movne	r0, r5
  30e440:	1b000258 	blne	30eda8 <sub_FF876CF0>
  30e444:	eb00013a 	bl	30e934 <sub_FF872074_my>
  30e448:	eb005602 	bl	323c58 <__core_spytask_can_start_from_arm>
  30e44c:	e3540000 	cmp	r4, #0
  30e450:	01a00005 	moveq	r0, r5
  30e454:	08bd4070 	popeq	{r4, r5, r6, lr}
  30e458:	03a01000 	moveq	r1, #0
  30e45c:	0a000251 	beq	30eda8 <sub_FF876CF0>
  30e460:	e8bd8070 	pop	{r4, r5, r6, pc}

0030e464 <JogDial_task_my>:
  30e464:	e92d4ff8 	push	{r3, r4, r5, r6, r7, r8, r9, sl, fp, lr}
  30e468:	eb000217 	bl	30eccc <sub_FF8464E8>
  30e46c:	e59fb708 	ldr	fp, [pc, #1800]	; 30eb7c <loc_FF854E40+0x14>
  30e470:	e59f8708 	ldr	r8, [pc, #1800]	; 30eb80 <loc_FF854E40+0x18>
  30e474:	e59f7708 	ldr	r7, [pc, #1800]	; 30eb84 <loc_FF854E40+0x1c>
  30e478:	e59f6708 	ldr	r6, [pc, #1800]	; 30eb88 <loc_FF854E40+0x20>
  30e47c:	e3a09001 	mov	r9, #1
  30e480:	e3a0a000 	mov	sl, #0

0030e484 <loc_FF846358>:
  30e484:	e59f3700 	ldr	r3, [pc, #1792]	; 30eb8c <loc_FF854E40+0x24>
  30e488:	e596000c 	ldr	r0, [r6, #12]
  30e48c:	e59f26fc 	ldr	r2, [pc, #1788]	; 30eb90 <loc_FF854E40+0x28>
  30e490:	e3a01000 	mov	r1, #0
  30e494:	eb000203 	bl	30eca8 <sub_FF827994>
  30e498:	e3a00028 	mov	r0, #40	; 0x28
  30e49c:	eb0003a3 	bl	30f330 <_SleepTask>

0030e4a0 <labelA>:
  30e4a0:	e59f06ec 	ldr	r0, [pc, #1772]	; 30eb94 <loc_FF854E40+0x2c>
  30e4a4:	e5900000 	ldr	r0, [r0]
  30e4a8:	e3500001 	cmp	r0, #1
  30e4ac:	1a000002 	bne	30e4bc <labelB>
  30e4b0:	e3a00028 	mov	r0, #40	; 0x28
  30e4b4:	eb00039d 	bl	30f330 <_SleepTask>
  30e4b8:	eafffff8 	b	30e4a0 <labelA>

0030e4bc <labelB>:
  30e4bc:	e5970104 	ldr	r0, [r7, #260]	; 0x104
  30e4c0:	e1a00840 	asr	r0, r0, #16
  30e4c4:	e1c600b0 	strh	r0, [r6]
  30e4c8:	e1d620f2 	ldrsh	r2, [r6, #2]
  30e4cc:	e0401002 	sub	r1, r0, r2
  30e4d0:	e3510000 	cmp	r1, #0
  30e4d4:	0a000022 	beq	30e564 <loc_FF84641C>
  30e4d8:	e1a05001 	mov	r5, r1
  30e4dc:	b2655000 	rsblt	r5, r5, #0
  30e4e0:	d3a04000 	movle	r4, #0
  30e4e4:	c3a04001 	movgt	r4, #1
  30e4e8:	e35500ff 	cmp	r5, #255	; 0xff
  30e4ec:	9a000009 	bls	30e518 <loc_FF8463D0>
  30e4f0:	e3510000 	cmp	r1, #0
  30e4f4:	d26210ff 	rsble	r1, r2, #255	; 0xff
  30e4f8:	d2811c7f 	addle	r1, r1, #32512	; 0x7f00
  30e4fc:	d0810000 	addle	r0, r1, r0
  30e500:	c26000ff 	rsbgt	r0, r0, #255	; 0xff
  30e504:	c2800c7f 	addgt	r0, r0, #32512	; 0x7f00
  30e508:	c0800002 	addgt	r0, r0, r2
  30e50c:	e2805902 	add	r5, r0, #32768	; 0x8000
  30e510:	e2855001 	add	r5, r5, #1
  30e514:	e2244001 	eor	r4, r4, #1

0030e518 <loc_FF8463D0>:
  30e518:	e5960014 	ldr	r0, [r6, #20]
  30e51c:	e3500000 	cmp	r0, #0
  30e520:	0a00000d 	beq	30e55c <loc_FF846414>
  30e524:	e596001c 	ldr	r0, [r6, #28]
  30e528:	e3500000 	cmp	r0, #0
  30e52c:	0a000004 	beq	30e544 <loc_FF8463FC>
  30e530:	e7981104 	ldr	r1, [r8, r4, lsl #2]
  30e534:	e1510000 	cmp	r1, r0
  30e538:	0a000003 	beq	30e54c <loc_FF846404>
  30e53c:	e59f0654 	ldr	r0, [pc, #1620]	; 30eb98 <loc_FF854E40+0x30>
  30e540:	eb00021a 	bl	30edb0 <sub_FF878BA0>

0030e544 <loc_FF8463FC>:
  30e544:	e1a0000b 	mov	r0, fp
  30e548:	eb000218 	bl	30edb0 <sub_FF878BA0>

0030e54c <loc_FF846404>:
  30e54c:	e7980104 	ldr	r0, [r8, r4, lsl #2]
  30e550:	e1a01005 	mov	r1, r5
  30e554:	e586001c 	str	r0, [r6, #28]
  30e558:	eb000213 	bl	30edac <sub_FF878AE8>

0030e55c <loc_FF846414>:
  30e55c:	e1d600b0 	ldrh	r0, [r6]
  30e560:	e1c600b2 	strh	r0, [r6, #2]

0030e564 <loc_FF84641C>:
  30e564:	e587a100 	str	sl, [r7, #256]	; 0x100
  30e568:	e5879108 	str	r9, [r7, #264]	; 0x108
  30e56c:	e5960010 	ldr	r0, [r6, #16]
  30e570:	e3500000 	cmp	r0, #0
  30e574:	1b00036d 	blne	30f330 <_SleepTask>
  30e578:	eaffffc1 	b	30e484 <loc_FF846358>

0030e57c <CreateTask_spytask>:
  30e57c:	e92d4007 	push	{r0, r1, r2, lr}
  30e580:	e3a03000 	mov	r3, #0
  30e584:	e58d3000 	str	r3, [sp]
  30e588:	e59f3014 	ldr	r3, [pc, #20]	; 30e5a4 <CreateTask_spytask+0x28>
  30e58c:	e3a02a02 	mov	r2, #8192	; 0x2000
  30e590:	e3a01019 	mov	r1, #25
  30e594:	e59f000c 	ldr	r0, [pc, #12]	; 30e5a8 <CreateTask_spytask+0x2c>
  30e598:	eb000319 	bl	30f204 <_CreateTask>
  30e59c:	e28dd00c 	add	sp, sp, #12
  30e5a0:	e49df004 	pop	{pc}		; (ldr pc, [sp], #4)
  30e5a4:	003110b9 	.word	0x003110b9
  30e5a8:	00324058 	.word	0x00324058

0030e5ac <boot>:
  30e5ac:	e59f15e8 	ldr	r1, [pc, #1512]	; 30eb9c <loc_FF854E40+0x34>
  30e5b0:	e3a00000 	mov	r0, #0
  30e5b4:	e5810000 	str	r0, [r1]
  30e5b8:	e3a01078 	mov	r1, #120	; 0x78
  30e5bc:	ee011f10 	mcr	15, 0, r1, cr1, cr0, {0}
  30e5c0:	e3a01000 	mov	r1, #0
  30e5c4:	ee071f9a 	mcr	15, 0, r1, cr7, cr10, {4}
  30e5c8:	ee071f15 	mcr	15, 0, r1, cr7, cr5, {0}
  30e5cc:	ee071f16 	mcr	15, 0, r1, cr7, cr6, {0}
  30e5d0:	e3a0003d 	mov	r0, #61	; 0x3d
  30e5d4:	ee060f10 	mcr	15, 0, r0, cr6, cr0, {0}
  30e5d8:	e3a001bf 	mov	r0, #-1073741777	; 0xc000002f
  30e5dc:	ee060f11 	mcr	15, 0, r0, cr6, cr1, {0}
  30e5e0:	e3a00033 	mov	r0, #51	; 0x33
  30e5e4:	ee060f12 	mcr	15, 0, r0, cr6, cr2, {0}
  30e5e8:	e3a001cd 	mov	r0, #1073741875	; 0x40000033
  30e5ec:	ee060f13 	mcr	15, 0, r0, cr6, cr3, {0}
  30e5f0:	e3a0015e 	mov	r0, #-2147483625	; 0x80000017
  30e5f4:	ee060f14 	mcr	15, 0, r0, cr6, cr4, {0}
  30e5f8:	e59f05a0 	ldr	r0, [pc, #1440]	; 30eba0 <loc_FF854E40+0x38>
  30e5fc:	ee060f15 	mcr	15, 0, r0, cr6, cr5, {0}
  30e600:	e3a00034 	mov	r0, #52	; 0x34
  30e604:	ee020f10 	mcr	15, 0, r0, cr2, cr0, {0}
  30e608:	e3a00034 	mov	r0, #52	; 0x34
  30e60c:	ee020f30 	mcr	15, 0, r0, cr2, cr0, {1}
  30e610:	e3a00034 	mov	r0, #52	; 0x34
  30e614:	ee030f10 	mcr	15, 0, r0, cr3, cr0, {0}
  30e618:	e59f0584 	ldr	r0, [pc, #1412]	; 30eba4 <loc_FF854E40+0x3c>
  30e61c:	ee050f50 	mcr	15, 0, r0, cr5, cr0, {2}
  30e620:	e59f057c 	ldr	r0, [pc, #1404]	; 30eba4 <loc_FF854E40+0x3c>
  30e624:	ee050f70 	mcr	15, 0, r0, cr5, cr0, {3}
  30e628:	ee110f10 	mrc	15, 0, r0, cr1, cr0, {0}
  30e62c:	e3800a01 	orr	r0, r0, #4096	; 0x1000
  30e630:	e3800004 	orr	r0, r0, #4
  30e634:	e3800001 	orr	r0, r0, #1
  30e638:	ee010f10 	mcr	15, 0, r0, cr1, cr0, {0}
  30e63c:	e3a0111a 	mov	r1, #-2147483642	; 0x80000006
  30e640:	ee091f11 	mcr	15, 0, r1, cr9, cr1, {0}
  30e644:	e3a01006 	mov	r1, #6
  30e648:	ee091f31 	mcr	15, 0, r1, cr9, cr1, {1}
  30e64c:	ee111f10 	mrc	15, 0, r1, cr1, cr0, {0}
  30e650:	e3811805 	orr	r1, r1, #327680	; 0x50000
  30e654:	ee011f10 	mcr	15, 0, r1, cr1, cr0, {0}
  30e658:	e59f2548 	ldr	r2, [pc, #1352]	; 30eba8 <loc_FF854E40+0x40>
  30e65c:	e3a01001 	mov	r1, #1
  30e660:	e582110c 	str	r1, [r2, #268]	; 0x10c
  30e664:	e3a010ff 	mov	r1, #255	; 0xff
  30e668:	e582100c 	str	r1, [r2, #12]
  30e66c:	e582101c 	str	r1, [r2, #28]
  30e670:	e582102c 	str	r1, [r2, #44]	; 0x2c
  30e674:	e582103c 	str	r1, [r2, #60]	; 0x3c
  30e678:	e582104c 	str	r1, [r2, #76]	; 0x4c
  30e67c:	e582105c 	str	r1, [r2, #92]	; 0x5c
  30e680:	e582106c 	str	r1, [r2, #108]	; 0x6c
  30e684:	e582107c 	str	r1, [r2, #124]	; 0x7c
  30e688:	e582108c 	str	r1, [r2, #140]	; 0x8c
  30e68c:	e582109c 	str	r1, [r2, #156]	; 0x9c
  30e690:	e58210ac 	str	r1, [r2, #172]	; 0xac
  30e694:	e58210bc 	str	r1, [r2, #188]	; 0xbc
  30e698:	e58210cc 	str	r1, [r2, #204]	; 0xcc
  30e69c:	e58210dc 	str	r1, [r2, #220]	; 0xdc
  30e6a0:	e58210ec 	str	r1, [r2, #236]	; 0xec
  30e6a4:	e58210fc 	str	r1, [r2, #252]	; 0xfc
  30e6a8:	e59f14fc 	ldr	r1, [pc, #1276]	; 30ebac <loc_FF854E40+0x44>
  30e6ac:	e59f24fc 	ldr	r2, [pc, #1276]	; 30ebb0 <loc_FF854E40+0x48>
  30e6b0:	e5812000 	str	r2, [r1]
  30e6b4:	e3a01001 	mov	r1, #1
  30e6b8:	e59f24f4 	ldr	r2, [pc, #1268]	; 30ebb4 <loc_FF854E40+0x4c>
  30e6bc:	e5812000 	str	r2, [r1]
  30e6c0:	e59f24f0 	ldr	r2, [pc, #1264]	; 30ebb8 <loc_FF854E40+0x50>
  30e6c4:	e5921000 	ldr	r1, [r2]
  30e6c8:	e3811001 	orr	r1, r1, #1
  30e6cc:	e5821000 	str	r1, [r2]
  30e6d0:	e59f04e4 	ldr	r0, [pc, #1252]	; 30ebbc <loc_FF854E40+0x54>
  30e6d4:	e3a01c19 	mov	r1, #6400	; 0x1900
  30e6d8:	e59f34e0 	ldr	r3, [pc, #1248]	; 30ebc0 <loc_FF854E40+0x58>

0030e6dc <loc_FF81013C>:
  30e6dc:	e1510003 	cmp	r1, r3
  30e6e0:	34902004 	ldrcc	r2, [r0], #4
  30e6e4:	34812004 	strcc	r2, [r1], #4
  30e6e8:	3afffffb 	bcc	30e6dc <loc_FF81013C>
  30e6ec:	e59f14d0 	ldr	r1, [pc, #1232]	; 30ebc4 <loc_FF854E40+0x5c>
  30e6f0:	e3a02000 	mov	r2, #0

0030e6f4 <loc_FF810154>:
  30e6f4:	e1530001 	cmp	r3, r1
  30e6f8:	34832004 	strcc	r2, [r3], #4
  30e6fc:	3afffffc 	bcc	30e6f4 <loc_FF810154>
  30e700:	eaffffff 	b	30e704 <sub_FF8101A0_my>

0030e704 <sub_FF8101A0_my>:
  30e704:	e3a03a01 	mov	r3, #4096	; 0x1000
  30e708:	e59f2090 	ldr	r2, [pc, #144]	; 30e7a0 <loc_FF8101FC+0x10>
  30e70c:	e5832930 	str	r2, [r3, #2352]	; 0x930
  30e710:	e59f208c 	ldr	r2, [pc, #140]	; 30e7a4 <loc_FF8101FC+0x14>
  30e714:	e5832934 	str	r2, [r3, #2356]	; 0x934
  30e718:	e59f3088 	ldr	r3, [pc, #136]	; 30e7a8 <loc_FF8101FC+0x18>
  30e71c:	e59330f8 	ldr	r3, [r3, #248]	; 0xf8
  30e720:	e3130001 	tst	r3, #1
  30e724:	13a02602 	movne	r2, #2097152	; 0x200000
  30e728:	03a02601 	moveq	r2, #1048576	; 0x100000
  30e72c:	e3a03a02 	mov	r3, #8192	; 0x2000
  30e730:	e5832394 	str	r2, [r3, #916]	; 0x394
  30e734:	e59f048c 	ldr	r0, [pc, #1164]	; 30ebc8 <loc_FF854E40+0x60>
  30e738:	e3a01000 	mov	r1, #0
  30e73c:	e59f3488 	ldr	r3, [pc, #1160]	; 30ebcc <loc_FF854E40+0x64>

0030e740 <loc_FF8101AC>:
  30e740:	e1500003 	cmp	r0, r3
  30e744:	34902004 	ldrcc	r2, [r0], #4
  30e748:	34812004 	strcc	r2, [r1], #4
  30e74c:	3afffffb 	bcc	30e740 <loc_FF8101AC>
  30e750:	e59f0474 	ldr	r0, [pc, #1140]	; 30ebcc <loc_FF854E40+0x64>
  30e754:	e3a01e4b 	mov	r1, #1200	; 0x4b0
  30e758:	e59f3470 	ldr	r3, [pc, #1136]	; 30ebd0 <loc_FF854E40+0x68>

0030e75c <loc_FF8101C8>:
  30e75c:	e1500003 	cmp	r0, r3
  30e760:	34902004 	ldrcc	r2, [r0], #4
  30e764:	34812004 	strcc	r2, [r1], #4
  30e768:	3afffffb 	bcc	30e75c <loc_FF8101C8>
  30e76c:	e3a000d2 	mov	r0, #210	; 0xd2
  30e770:	e12ff000 	msr	CPSR_fsxc, r0
  30e774:	e3a0da01 	mov	sp, #4096	; 0x1000
  30e778:	e3a000d3 	mov	r0, #211	; 0xd3
  30e77c:	e12ff000 	msr	CPSR_fsxc, r0
  30e780:	e3a0da01 	mov	sp, #4096	; 0x1000
  30e784:	e59f0448 	ldr	r0, [pc, #1096]	; 30ebd4 <loc_FF854E40+0x6c>
  30e788:	e59f2448 	ldr	r2, [pc, #1096]	; 30ebd8 <loc_FF854E40+0x70>
  30e78c:	e3a03a01 	mov	r3, #4096	; 0x1000

0030e790 <loc_FF8101FC>:
  30e790:	e1500003 	cmp	r0, r3
  30e794:	34802004 	strcc	r2, [r0], #4
  30e798:	3afffffc 	bcc	30e790 <loc_FF8101FC>
  30e79c:	eb000002 	bl	30e7ac <sub_FF810F94_my>
  30e7a0:	0030e308 	.word	0x0030e308
  30e7a4:	0030e3d0 	.word	0x0030e3d0
  30e7a8:	c0220000 	.word	0xc0220000

0030e7ac <sub_FF810F94_my>:
  30e7ac:	e52de004 	push	{lr}		; (str lr, [sp, #-4]!)
  30e7b0:	e24dd074 	sub	sp, sp, #116	; 0x74
  30e7b4:	e1a0000d 	mov	r0, sp
  30e7b8:	e3a01074 	mov	r1, #116	; 0x74
  30e7bc:	eb0001d0 	bl	30ef04 <sub_FFAD1AD4>
  30e7c0:	e3a00a53 	mov	r0, #339968	; 0x53000
  30e7c4:	e58d0004 	str	r0, [sp, #4]
  30e7c8:	e59f03f4 	ldr	r0, [pc, #1012]	; 30ebc4 <loc_FF854E40+0x5c>
  30e7cc:	e59f2408 	ldr	r2, [pc, #1032]	; 30ebdc <loc_FF854E40+0x74>
  30e7d0:	e59f1408 	ldr	r1, [pc, #1032]	; 30ebe0 <loc_FF854E40+0x78>
  30e7d4:	e58d0008 	str	r0, [sp, #8]
  30e7d8:	e0410000 	sub	r0, r1, r0
  30e7dc:	e28d300c 	add	r3, sp, #12
  30e7e0:	e58d2000 	str	r2, [sp]
  30e7e4:	e8830007 	stm	r3, {r0, r1, r2}
  30e7e8:	e3a00022 	mov	r0, #34	; 0x22
  30e7ec:	e58d0018 	str	r0, [sp, #24]
  30e7f0:	e3a00068 	mov	r0, #104	; 0x68
  30e7f4:	e58d001c 	str	r0, [sp, #28]
  30e7f8:	e59f03e4 	ldr	r0, [pc, #996]	; 30ebe4 <loc_FF854E40+0x7c>
  30e7fc:	e59f13e4 	ldr	r1, [pc, #996]	; 30ebe8 <loc_FF854E40+0x80>
  30e800:	ea000109 	b	30ec2c <sub_FF810FE8>

0030e804 <sub_FF814D8C_my>:
  30e804:	e92d4010 	push	{r4, lr}
  30e808:	eb000106 	bl	30ec28 <sub_FF810940>
  30e80c:	eb00010e 	bl	30ec4c <sub_FF81901C>
  30e810:	e3500000 	cmp	r0, #0
  30e814:	b59f03d0 	ldrlt	r0, [pc, #976]	; 30ebec <loc_FF854E40+0x84>
  30e818:	bb000108 	bllt	30ec40 <sub_FF814E80>
  30e81c:	eb000105 	bl	30ec38 <sub_FF8149B4>
  30e820:	e3500000 	cmp	r0, #0
  30e824:	b59f03c4 	ldrlt	r0, [pc, #964]	; 30ebf0 <loc_FF854E40+0x88>
  30e828:	bb000104 	bllt	30ec40 <sub_FF814E80>
  30e82c:	e59f03c0 	ldr	r0, [pc, #960]	; 30ebf4 <loc_FF854E40+0x8c>
  30e830:	eb000101 	bl	30ec3c <sub_FF814A9C>
  30e834:	e3500000 	cmp	r0, #0
  30e838:	b59f03b8 	ldrlt	r0, [pc, #952]	; 30ebf8 <loc_FF854E40+0x90>
  30e83c:	bb0000ff 	bllt	30ec40 <sub_FF814E80>
  30e840:	e59f03ac 	ldr	r0, [pc, #940]	; 30ebf4 <loc_FF854E40+0x8c>
  30e844:	eb0000fa 	bl	30ec34 <sub_FF813548>
  30e848:	e3500000 	cmp	r0, #0
  30e84c:	b59f03a8 	ldrlt	r0, [pc, #936]	; 30ebfc <loc_FF854E40+0x94>
  30e850:	bb0000fa 	bllt	30ec40 <sub_FF814E80>
  30e854:	eb0000fb 	bl	30ec48 <sub_FF818BA4>
  30e858:	e3500000 	cmp	r0, #0
  30e85c:	b59f039c 	ldrlt	r0, [pc, #924]	; 30ec00 <loc_FF854E40+0x98>
  30e860:	bb0000f6 	bllt	30ec40 <sub_FF814E80>
  30e864:	eb0000f1 	bl	30ec30 <sub_FF811478>
  30e868:	e3500000 	cmp	r0, #0
  30e86c:	b59f0390 	ldrlt	r0, [pc, #912]	; 30ec04 <loc_FF854E40+0x9c>
  30e870:	bb0000f2 	bllt	30ec40 <sub_FF814E80>
  30e874:	e8bd4010 	pop	{r4, lr}
  30e878:	eaffffff 	b	30e87c <taskcreate_Startup_my>

0030e87c <taskcreate_Startup_my>:
  30e87c:	e92d4038 	push	{r3, r4, r5, lr}
  30e880:	eb00010b 	bl	30ecb4 <sub_FF8294D4>
  30e884:	e3500000 	cmp	r0, #0
  30e888:	1a00000c 	bne	30e8c0 <loc_FF81C1F0>
  30e88c:	e59f4374 	ldr	r4, [pc, #884]	; 30ec08 <loc_FF854E40+0xa0>
  30e890:	e59400fc 	ldr	r0, [r4, #252]	; 0xfc
  30e894:	e3100001 	tst	r0, #1
  30e898:	03a00f4b 	moveq	r0, #300	; 0x12c
  30e89c:	0b0000ff 	bleq	30eca0 <sub_FF8277EC>
  30e8a0:	eb0000f3 	bl	30ec74 <sub_FF82194C>
  30e8a4:	e3500000 	cmp	r0, #0
  30e8a8:	1a000004 	bne	30e8c0 <loc_FF81C1F0>
  30e8ac:	eb0000ed 	bl	30ec68 <sub_FF8210C8>
  30e8b0:	e3a00044 	mov	r0, #68	; 0x44
  30e8b4:	e584001c 	str	r0, [r4, #28]
  30e8b8:	eb0000eb 	bl	30ec6c <sub_FF8212B8>

0030e8bc <loc_FF81C1EC>:
  30e8bc:	eafffffe 	b	30e8bc <loc_FF81C1EC>

0030e8c0 <loc_FF81C1F0>:
  30e8c0:	eb0000f5 	bl	30ec9c <sub_FF827664>
  30e8c4:	e59f1340 	ldr	r1, [pc, #832]	; 30ec0c <loc_FF854E40+0xa4>
  30e8c8:	e3a00000 	mov	r0, #0
  30e8cc:	eb0000f7 	bl	30ecb0 <sub_FF827AAC>
  30e8d0:	eb0000f3 	bl	30eca4 <sub_FF827858>
  30e8d4:	e3a03000 	mov	r3, #0
  30e8d8:	e58d3000 	str	r3, [sp]
  30e8dc:	e59f332c 	ldr	r3, [pc, #812]	; 30ec10 <loc_FF854E40+0xa8>
  30e8e0:	e3a02000 	mov	r2, #0
  30e8e4:	e3a01019 	mov	r1, #25
  30e8e8:	e59f0324 	ldr	r0, [pc, #804]	; 30ec14 <loc_FF854E40+0xac>
  30e8ec:	eb0000d7 	bl	30ec50 <sub_FF81AEF4>
  30e8f0:	e3a00000 	mov	r0, #0
  30e8f4:	e8bd8038 	pop	{r3, r4, r5, pc}

0030e8f8 <task_Startup_my>:
  30e8f8:	e92d4010 	push	{r4, lr}
  30e8fc:	eb0000d0 	bl	30ec44 <sub_FF8153CC>
  30e900:	eb0000dc 	bl	30ec78 <sub_FF822AB4>
  30e904:	eb0000d6 	bl	30ec64 <sub_FF820E1C>
  30e908:	eb0000ea 	bl	30ecb8 <sub_FF8296DC>
  30e90c:	eb0000eb 	bl	30ecc0 <sub_FF829894>
  30e910:	eb0000d2 	bl	30ec60 <sub_FF81FAB0>
  30e914:	eb0000e8 	bl	30ecbc <sub_FF82972C>
  30e918:	eb0000db 	bl	30ec8c <sub_FF826C64>
  30e91c:	eb0000e8 	bl	30ecc4 <sub_FF829898>
  30e920:	ebffff15 	bl	30e57c <CreateTask_spytask>
  30e924:	eb0000d1 	bl	30ec70 <sub_FF821848>
  30e928:	eb0000d6 	bl	30ec88 <sub_FF8249D0>
  30e92c:	eb0000e5 	bl	30ecc8 <sub_FF8298B0>
  30e930:	ea0000c9 	b	30ec5c <sub_FF81C184>

0030e934 <sub_FF872074_my>:
  30e934:	e92d4010 	push	{r4, lr}
  30e938:	eb000000 	bl	30e940 <sub_FF85511C_my>
  30e93c:	ea000118 	b	30eda4 <sub_FF87207C>

0030e940 <sub_FF85511C_my>:
  30e940:	e92d4070 	push	{r4, r5, r6, lr}
  30e944:	e3a06000 	mov	r6, #0
  30e948:	e1a00006 	mov	r0, r6
  30e94c:	eb0000e5 	bl	30ece8 <sub_FF854BDC>
  30e950:	e59f42c0 	ldr	r4, [pc, #704]	; 30ec18 <loc_FF854E40+0xb0>
  30e954:	e3a05000 	mov	r5, #0
  30e958:	e5940038 	ldr	r0, [r4, #56]	; 0x38
  30e95c:	eb0000e6 	bl	30ecfc <sub_FF85563C>
  30e960:	e3500000 	cmp	r0, #0
  30e964:	059f02b0 	ldreq	r0, [pc, #688]	; 30ec1c <loc_FF854E40+0xb4>
  30e968:	05805010 	streq	r5, [r0, #16]
  30e96c:	05805014 	streq	r5, [r0, #20]
  30e970:	05805018 	streq	r5, [r0, #24]
  30e974:	e1a00006 	mov	r0, r6
  30e978:	eb0000db 	bl	30ecec <sub_FF854C1C>
  30e97c:	e1a00006 	mov	r0, r6
  30e980:	eb000000 	bl	30e988 <sub_FF854F58_my>
  30e984:	ea0000da 	b	30ecf4 <sub_FF855160>

0030e988 <sub_FF854F58_my>:
  30e988:	e92d4070 	push	{r4, r5, r6, lr}
  30e98c:	e59f5288 	ldr	r5, [pc, #648]	; 30ec1c <loc_FF854E40+0xb4>
  30e990:	e1a06000 	mov	r6, r0
  30e994:	e5950014 	ldr	r0, [r5, #20]
  30e998:	e3500000 	cmp	r0, #0
  30e99c:	13a00001 	movne	r0, #1
  30e9a0:	18bd8070 	popne	{r4, r5, r6, pc}
  30e9a4:	e3a00017 	mov	r0, #23
  30e9a8:	e0010690 	mul	r1, r0, r6
  30e9ac:	e59f0264 	ldr	r0, [pc, #612]	; 30ec18 <loc_FF854E40+0xb0>
  30e9b0:	e0804101 	add	r4, r0, r1, lsl #2
  30e9b4:	e5940038 	ldr	r0, [r4, #56]	; 0x38
  30e9b8:	e1a01006 	mov	r1, r6
  30e9bc:	eb000000 	bl	30e9c4 <sub_FF854CE8_my>
  30e9c0:	ea0000ca 	b	30ecf0 <sub_FF854F90>

0030e9c4 <sub_FF854CE8_my>:
  30e9c4:	e92d41f0 	push	{r4, r5, r6, r7, r8, lr}
  30e9c8:	e1a08000 	mov	r8, r0
  30e9cc:	e3a00017 	mov	r0, #23
  30e9d0:	e0010190 	mul	r1, r0, r1
  30e9d4:	e59f023c 	ldr	r0, [pc, #572]	; 30ec18 <loc_FF854E40+0xb0>
  30e9d8:	e3a06000 	mov	r6, #0
  30e9dc:	e0807101 	add	r7, r0, r1, lsl #2
  30e9e0:	e597003c 	ldr	r0, [r7, #60]	; 0x3c
  30e9e4:	e3a05000 	mov	r5, #0
  30e9e8:	e3500006 	cmp	r0, #6
  30e9ec:	908ff100 	addls	pc, pc, r0, lsl #2
  30e9f0:	ea000059 	b	30eb5c <loc_FF854E34>

0030e9f4 <loc_FF854D18>:
  30e9f4:	ea00000b 	b	30ea28 <loc_FF854D4C>

0030e9f8 <loc_FF854D1C>:
  30e9f8:	ea000004 	b	30ea10 <loc_FF854D34>

0030e9fc <loc_FF854D20>:
  30e9fc:	ea000003 	b	30ea10 <loc_FF854D34>

0030ea00 <loc_FF854D24>:
  30ea00:	ea000002 	b	30ea10 <loc_FF854D34>

0030ea04 <loc_FF854D28>:
  30ea04:	ea000001 	b	30ea10 <loc_FF854D34>

0030ea08 <loc_FF854D2C>:
  30ea08:	ea000051 	b	30eb54 <loc_FF854E2C>

0030ea0c <loc_FF854D30>:
  30ea0c:	eaffffff 	b	30ea10 <loc_FF854D34>

0030ea10 <loc_FF854D34>:
  30ea10:	e3a02000 	mov	r2, #0
  30ea14:	e3a01c02 	mov	r1, #512	; 0x200
  30ea18:	e3a00002 	mov	r0, #2
  30ea1c:	eb0000da 	bl	30ed8c <sub_FF86BFF0>
  30ea20:	e1b04000 	movs	r4, r0
  30ea24:	1a000001 	bne	30ea30 <loc_FF854D54>

0030ea28 <loc_FF854D4C>:
  30ea28:	e3a00000 	mov	r0, #0
  30ea2c:	e8bd81f0 	pop	{r4, r5, r6, r7, r8, pc}

0030ea30 <loc_FF854D54>:
  30ea30:	e597c04c 	ldr	ip, [r7, #76]	; 0x4c
  30ea34:	e1a03004 	mov	r3, r4
  30ea38:	e3a02001 	mov	r2, #1
  30ea3c:	e3a01000 	mov	r1, #0
  30ea40:	e1a00008 	mov	r0, r8
  30ea44:	e12fff3c 	blx	ip
  30ea48:	e3500001 	cmp	r0, #1
  30ea4c:	1a000002 	bne	30ea5c <loc_FF854D80>
  30ea50:	e3a00002 	mov	r0, #2
  30ea54:	eb0000cd 	bl	30ed90 <sub_FF86C13C>
  30ea58:	eafffff2 	b	30ea28 <loc_FF854D4C>

0030ea5c <loc_FF854D80>:
  30ea5c:	e1a00008 	mov	r0, r8
  30ea60:	eb000101 	bl	30ee6c <sub_FF918C14>
  30ea64:	e1a01004 	mov	r1, r4
  30ea68:	eb00509c 	bl	322ce0 <mbr_read_dryos>
  30ea6c:	e1a0c004 	mov	ip, r4
  30ea70:	e1a0e004 	mov	lr, r4
  30ea74:	e3a01001 	mov	r1, #1
  30ea78:	ea000003 	b	30ea8c <dg_sd_fat32_enter>

0030ea7c <dg_sd_fat32>:
  30ea7c:	e3510004 	cmp	r1, #4
  30ea80:	0a00000a 	beq	30eab0 <dg_sd_fat32_end>
  30ea84:	e28cc010 	add	ip, ip, #16
  30ea88:	e2811001 	add	r1, r1, #1

0030ea8c <dg_sd_fat32_enter>:
  30ea8c:	e5dc21be 	ldrb	r2, [ip, #446]	; 0x1be
  30ea90:	e5dc31c2 	ldrb	r3, [ip, #450]	; 0x1c2
  30ea94:	e353000b 	cmp	r3, #11
  30ea98:	1353000c 	cmpne	r3, #12
  30ea9c:	1afffff6 	bne	30ea7c <dg_sd_fat32>
  30eaa0:	e3520000 	cmp	r2, #0
  30eaa4:	13520080 	cmpne	r2, #128	; 0x80
  30eaa8:	1afffff3 	bne	30ea7c <dg_sd_fat32>
  30eaac:	e1a0400c 	mov	r4, ip

0030eab0 <dg_sd_fat32_end>:
  30eab0:	e5d411c9 	ldrb	r1, [r4, #457]	; 0x1c9
  30eab4:	e5d431c8 	ldrb	r3, [r4, #456]	; 0x1c8
  30eab8:	e5d4c1cc 	ldrb	ip, [r4, #460]	; 0x1cc
  30eabc:	e1a01c01 	lsl	r1, r1, #24
  30eac0:	e1811803 	orr	r1, r1, r3, lsl #16
  30eac4:	e5d431c7 	ldrb	r3, [r4, #455]	; 0x1c7
  30eac8:	e5d421be 	ldrb	r2, [r4, #446]	; 0x1be
  30eacc:	e1811403 	orr	r1, r1, r3, lsl #8
  30ead0:	e5d431c6 	ldrb	r3, [r4, #454]	; 0x1c6
  30ead4:	e3520000 	cmp	r2, #0
  30ead8:	13520080 	cmpne	r2, #128	; 0x80
  30eadc:	e1811003 	orr	r1, r1, r3
  30eae0:	e5d431cd 	ldrb	r3, [r4, #461]	; 0x1cd
  30eae4:	e1a03c03 	lsl	r3, r3, #24
  30eae8:	e183380c 	orr	r3, r3, ip, lsl #16
  30eaec:	e5d4c1cb 	ldrb	ip, [r4, #459]	; 0x1cb
  30eaf0:	e183340c 	orr	r3, r3, ip, lsl #8
  30eaf4:	e5d4c1ca 	ldrb	ip, [r4, #458]	; 0x1ca
  30eaf8:	e183300c 	orr	r3, r3, ip
  30eafc:	e5dec1fe 	ldrb	ip, [lr, #510]	; 0x1fe
  30eb00:	e5dee1ff 	ldrb	lr, [lr, #511]	; 0x1ff
  30eb04:	e3a04000 	mov	r4, #0
  30eb08:	1a000008 	bne	30eb30 <loc_FF854E08>
  30eb0c:	e1500001 	cmp	r0, r1
  30eb10:	3a000006 	bcc	30eb30 <loc_FF854E08>
  30eb14:	e0812003 	add	r2, r1, r3
  30eb18:	e1520000 	cmp	r2, r0
  30eb1c:	935c0055 	cmpls	ip, #85	; 0x55
  30eb20:	035e00aa 	cmpeq	lr, #170	; 0xaa
  30eb24:	01a06001 	moveq	r6, r1
  30eb28:	01a05003 	moveq	r5, r3
  30eb2c:	03a04001 	moveq	r4, #1

0030eb30 <loc_FF854E08>:
  30eb30:	e3a00002 	mov	r0, #2
  30eb34:	eb000095 	bl	30ed90 <sub_FF86C13C>
  30eb38:	e3540000 	cmp	r4, #0
  30eb3c:	1a000009 	bne	30eb68 <loc_FF854E40>
  30eb40:	e3a06000 	mov	r6, #0
  30eb44:	e1a00008 	mov	r0, r8
  30eb48:	eb0000c7 	bl	30ee6c <sub_FF918C14>
  30eb4c:	e1a05000 	mov	r5, r0
  30eb50:	ea000004 	b	30eb68 <loc_FF854E40>

0030eb54 <loc_FF854E2C>:
  30eb54:	e3a05040 	mov	r5, #64	; 0x40
  30eb58:	ea000002 	b	30eb68 <loc_FF854E40>

0030eb5c <loc_FF854E34>:
  30eb5c:	e59f10bc 	ldr	r1, [pc, #188]	; 30ec20 <loc_FF854E40+0xb8>
  30eb60:	e59f00bc 	ldr	r0, [pc, #188]	; 30ec24 <loc_FF854E40+0xbc>
  30eb64:	eb00003b 	bl	30ec58 <sub_FF81B1CC>

0030eb68 <loc_FF854E40>:
  30eb68:	e5a76044 	str	r6, [r7, #68]!	; 0x44
  30eb6c:	e3a00001 	mov	r0, #1
  30eb70:	e5875004 	str	r5, [r7, #4]
  30eb74:	e8bd81f0 	pop	{r4, r5, r6, r7, r8, pc}
  30eb78:	00005006 	.word	0x00005006
  30eb7c:	80000b01 	.word	0x80000b01
  30eb80:	ffad7080 	.word	0xffad7080
  30eb84:	c0240000 	.word	0xc0240000
  30eb88:	000023a0 	.word	0x000023a0
  30eb8c:	000001ae 	.word	0x000001ae
  30eb90:	ff846590 	.word	0xff846590
  30eb94:	003310fc 	.word	0x003310fc
  30eb98:	00000b01 	.word	0x00000b01
  30eb9c:	c0410000 	.word	0xc0410000
  30eba0:	ff80002d 	.word	0xff80002d
  30eba4:	03333330 	.word	0x03333330
  30eba8:	c0200000 	.word	0xc0200000
  30ebac:	c0400008 	.word	0xc0400008
  30ebb0:	00430005 	.word	0x00430005
  30ebb4:	c0243100 	.word	0xc0243100
  30ebb8:	c0242010 	.word	0xc0242010
  30ebbc:	ffb53358 	.word	0xffb53358
  30ebc0:	0000fbe8 	.word	0x0000fbe8
  30ebc4:	000de578 	.word	0x000de578
  30ebc8:	ff810218 	.word	0xff810218
  30ebcc:	ff810250 	.word	0xff810250
  30ebd0:	ff810464 	.word	0xff810464
  30ebd4:	000006c4 	.word	0x000006c4
  30ebd8:	eeeeeeee 	.word	0xeeeeeeee
  30ebdc:	002b9c00 	.word	0x002b9c00
  30ebe0:	002b24a8 	.word	0x002b24a8
  30ebe4:	0000019b 	.word	0x0000019b
  30ebe8:	0030e804 	.word	0x0030e804
  30ebec:	ff814ea0 	.word	0xff814ea0
  30ebf0:	ff814ea8 	.word	0xff814ea8
  30ebf4:	ff814eb8 	.word	0xff814eb8
  30ebf8:	ff814ec0 	.word	0xff814ec0
  30ebfc:	ff814ed4 	.word	0xff814ed4
  30ec00:	ff814ee0 	.word	0xff814ee0
  30ec04:	ff814eec 	.word	0xff814eec
  30ec08:	c0220000 	.word	0xc0220000
  30ec0c:	0030e000 	.word	0x0030e000
  30ec10:	0030e8f8 	.word	0x0030e8f8
  30ec14:	ff81c238 	.word	0xff81c238
  30ec18:	0001990c 	.word	0x0001990c
  30ec1c:	0000282c 	.word	0x0000282c
  30ec20:	0000037a 	.word	0x0000037a
  30ec24:	ff854cdc 	.word	0xff854cdc

0030ec28 <sub_FF810940>:
  30ec28:	e59ff2dc 	ldr	pc, [pc, #732]	; 30ef0c <sub_FFAD3D98+0x4>

0030ec2c <sub_FF810FE8>:
  30ec2c:	e59ff2dc 	ldr	pc, [pc, #732]	; 30ef10 <sub_FFAD3D98+0x8>

0030ec30 <sub_FF811478>:
  30ec30:	e59ff2dc 	ldr	pc, [pc, #732]	; 30ef14 <sub_FFAD3D98+0xc>

0030ec34 <sub_FF813548>:
  30ec34:	e59ff2dc 	ldr	pc, [pc, #732]	; 30ef18 <sub_FFAD3D98+0x10>

0030ec38 <sub_FF8149B4>:
  30ec38:	e59ff2dc 	ldr	pc, [pc, #732]	; 30ef1c <sub_FFAD3D98+0x14>

0030ec3c <sub_FF814A9C>:
  30ec3c:	e59ff2dc 	ldr	pc, [pc, #732]	; 30ef20 <sub_FFAD3D98+0x18>

0030ec40 <sub_FF814E80>:
  30ec40:	e59ff2dc 	ldr	pc, [pc, #732]	; 30ef24 <sub_FFAD3D98+0x1c>

0030ec44 <sub_FF8153CC>:
  30ec44:	e59ff2dc 	ldr	pc, [pc, #732]	; 30ef28 <sub_FFAD3D98+0x20>

0030ec48 <sub_FF818BA4>:
  30ec48:	e59ff2dc 	ldr	pc, [pc, #732]	; 30ef2c <sub_FFAD3D98+0x24>

0030ec4c <sub_FF81901C>:
  30ec4c:	e59ff2dc 	ldr	pc, [pc, #732]	; 30ef30 <sub_FFAD3D98+0x28>

0030ec50 <sub_FF81AEF4>:
  30ec50:	e59ff2dc 	ldr	pc, [pc, #732]	; 30ef34 <sub_FFAD3D98+0x2c>

0030ec54 <sub_FF81B184>:
  30ec54:	e59ff2dc 	ldr	pc, [pc, #732]	; 30ef38 <sub_FFAD3D98+0x30>

0030ec58 <sub_FF81B1CC>:
  30ec58:	e59ff2dc 	ldr	pc, [pc, #732]	; 30ef3c <sub_FFAD3D98+0x34>

0030ec5c <sub_FF81C184>:
  30ec5c:	e59ff2dc 	ldr	pc, [pc, #732]	; 30ef40 <sub_FFAD3D98+0x38>

0030ec60 <sub_FF81FAB0>:
  30ec60:	e59ff2dc 	ldr	pc, [pc, #732]	; 30ef44 <sub_FFAD3D98+0x3c>

0030ec64 <sub_FF820E1C>:
  30ec64:	e59ff2dc 	ldr	pc, [pc, #732]	; 30ef48 <sub_FFAD3D98+0x40>

0030ec68 <sub_FF8210C8>:
  30ec68:	e59ff2dc 	ldr	pc, [pc, #732]	; 30ef4c <sub_FFAD3D98+0x44>

0030ec6c <sub_FF8212B8>:
  30ec6c:	e59ff2dc 	ldr	pc, [pc, #732]	; 30ef50 <sub_FFAD3D98+0x48>

0030ec70 <sub_FF821848>:
  30ec70:	e59ff2dc 	ldr	pc, [pc, #732]	; 30ef54 <sub_FFAD3D98+0x4c>

0030ec74 <sub_FF82194C>:
  30ec74:	e59ff2dc 	ldr	pc, [pc, #732]	; 30ef58 <sub_FFAD3D98+0x50>

0030ec78 <sub_FF822AB4>:
  30ec78:	e59ff2dc 	ldr	pc, [pc, #732]	; 30ef5c <sub_FFAD3D98+0x54>

0030ec7c <sub_FF823ACC>:
  30ec7c:	e59ff2dc 	ldr	pc, [pc, #732]	; 30ef60 <sub_FFAD3D98+0x58>

0030ec80 <sub_FF823FD4>:
  30ec80:	e59ff2dc 	ldr	pc, [pc, #732]	; 30ef64 <sub_FFAD3D98+0x5c>

0030ec84 <sub_FF824944>:
  30ec84:	e59ff2dc 	ldr	pc, [pc, #732]	; 30ef68 <sub_FFAD3D98+0x60>

0030ec88 <sub_FF8249D0>:
  30ec88:	e59ff2dc 	ldr	pc, [pc, #732]	; 30ef6c <sub_FFAD3D98+0x64>

0030ec8c <sub_FF826C64>:
  30ec8c:	e59ff2dc 	ldr	pc, [pc, #732]	; 30ef70 <sub_FFAD3D98+0x68>

0030ec90 <sub_FF827098>:
  30ec90:	e59ff2dc 	ldr	pc, [pc, #732]	; 30ef74 <sub_FFAD3D98+0x6c>

0030ec94 <sub_FF8272DC>:
  30ec94:	e59ff2dc 	ldr	pc, [pc, #732]	; 30ef78 <sub_FFAD3D98+0x70>

0030ec98 <sub_FF827584>:
  30ec98:	e59ff2dc 	ldr	pc, [pc, #732]	; 30ef7c <sub_FFAD3D98+0x74>

0030ec9c <sub_FF827664>:
  30ec9c:	e59ff2dc 	ldr	pc, [pc, #732]	; 30ef80 <sub_FFAD3D98+0x78>

0030eca0 <sub_FF8277EC>:
  30eca0:	e59ff2dc 	ldr	pc, [pc, #732]	; 30ef84 <sub_FFAD3D98+0x7c>

0030eca4 <sub_FF827858>:
  30eca4:	e59ff2dc 	ldr	pc, [pc, #732]	; 30ef88 <sub_FFAD3D98+0x80>

0030eca8 <sub_FF827994>:
  30eca8:	e59ff2dc 	ldr	pc, [pc, #732]	; 30ef8c <sub_FFAD3D98+0x84>

0030ecac <sub_FF8279EC>:
  30ecac:	e59ff2dc 	ldr	pc, [pc, #732]	; 30ef90 <sub_FFAD3D98+0x88>

0030ecb0 <sub_FF827AAC>:
  30ecb0:	e59ff2dc 	ldr	pc, [pc, #732]	; 30ef94 <sub_FFAD3D98+0x8c>

0030ecb4 <sub_FF8294D4>:
  30ecb4:	e59ff2dc 	ldr	pc, [pc, #732]	; 30ef98 <sub_FFAD3D98+0x90>

0030ecb8 <sub_FF8296DC>:
  30ecb8:	e59ff2dc 	ldr	pc, [pc, #732]	; 30ef9c <sub_FFAD3D98+0x94>

0030ecbc <sub_FF82972C>:
  30ecbc:	e59ff2dc 	ldr	pc, [pc, #732]	; 30efa0 <sub_FFAD3D98+0x98>

0030ecc0 <sub_FF829894>:
  30ecc0:	e59ff2dc 	ldr	pc, [pc, #732]	; 30efa4 <sub_FFAD3D98+0x9c>

0030ecc4 <sub_FF829898>:
  30ecc4:	e59ff2dc 	ldr	pc, [pc, #732]	; 30efa8 <sub_FFAD3D98+0xa0>

0030ecc8 <sub_FF8298B0>:
  30ecc8:	e59ff2dc 	ldr	pc, [pc, #732]	; 30efac <sub_FFAD3D98+0xa4>

0030eccc <sub_FF8464E8>:
  30eccc:	e59ff2dc 	ldr	pc, [pc, #732]	; 30efb0 <sub_FFAD3D98+0xa8>

0030ecd0 <sub_FF847B84>:
  30ecd0:	e59ff2dc 	ldr	pc, [pc, #732]	; 30efb4 <sub_FFAD3D98+0xac>

0030ecd4 <sub_FF848C84>:
  30ecd4:	e59ff2dc 	ldr	pc, [pc, #732]	; 30efb8 <sub_FFAD3D98+0xb0>

0030ecd8 <sub_FF851F18>:
  30ecd8:	e59ff2dc 	ldr	pc, [pc, #732]	; 30efbc <sub_FFAD3D98+0xb4>

0030ecdc <sub_FF85351C>:
  30ecdc:	e59ff2dc 	ldr	pc, [pc, #732]	; 30efc0 <sub_FFAD3D98+0xb8>

0030ece0 <sub_FF853C08>:
  30ece0:	e59ff2dc 	ldr	pc, [pc, #732]	; 30efc4 <sub_FFAD3D98+0xbc>

0030ece4 <sub_FF853C58>:
  30ece4:	e59ff2dc 	ldr	pc, [pc, #732]	; 30efc8 <sub_FFAD3D98+0xc0>

0030ece8 <sub_FF854BDC>:
  30ece8:	e59ff2dc 	ldr	pc, [pc, #732]	; 30efcc <sub_FFAD3D98+0xc4>

0030ecec <sub_FF854C1C>:
  30ecec:	e59ff2dc 	ldr	pc, [pc, #732]	; 30efd0 <sub_FFAD3D98+0xc8>

0030ecf0 <sub_FF854F90>:
  30ecf0:	e59ff2dc 	ldr	pc, [pc, #732]	; 30efd4 <sub_FFAD3D98+0xcc>

0030ecf4 <sub_FF855160>:
  30ecf4:	e59ff2dc 	ldr	pc, [pc, #732]	; 30efd8 <sub_FFAD3D98+0xd0>

0030ecf8 <sub_FF8555B0>:
  30ecf8:	e59ff2dc 	ldr	pc, [pc, #732]	; 30efdc <sub_FFAD3D98+0xd4>

0030ecfc <sub_FF85563C>:
  30ecfc:	e59ff2dc 	ldr	pc, [pc, #732]	; 30efe0 <sub_FFAD3D98+0xd8>

0030ed00 <sub_FF85BF28>:
  30ed00:	e59ff2dc 	ldr	pc, [pc, #732]	; 30efe4 <sub_FFAD3D98+0xdc>

0030ed04 <sub_FF85D218>:
  30ed04:	e59ff2dc 	ldr	pc, [pc, #732]	; 30efe8 <sub_FFAD3D98+0xe0>

0030ed08 <sub_FF85D3BC>:
  30ed08:	e59ff2dc 	ldr	pc, [pc, #732]	; 30efec <sub_FFAD3D98+0xe4>

0030ed0c <sub_FF85D6CC>:
  30ed0c:	e59ff2dc 	ldr	pc, [pc, #732]	; 30eff0 <sub_FFAD3D98+0xe8>

0030ed10 <sub_FF85DE1C>:
  30ed10:	e59ff2dc 	ldr	pc, [pc, #732]	; 30eff4 <sub_FFAD3D98+0xec>

0030ed14 <sub_FF85E28C>:
  30ed14:	e59ff2dc 	ldr	pc, [pc, #732]	; 30eff8 <sub_FFAD3D98+0xf0>

0030ed18 <sub_FF85FDFC>:
  30ed18:	e59ff2dc 	ldr	pc, [pc, #732]	; 30effc <sub_FFAD3D98+0xf4>

0030ed1c <sub_FF860288>:
  30ed1c:	e59ff2dc 	ldr	pc, [pc, #732]	; 30f000 <sub_FFAD3D98+0xf8>

0030ed20 <sub_FF861518>:
  30ed20:	e59ff2dc 	ldr	pc, [pc, #732]	; 30f004 <sub_FFAD3D98+0xfc>

0030ed24 <sub_FF8617C4>:
  30ed24:	e59ff2dc 	ldr	pc, [pc, #732]	; 30f008 <sub_FFAD3D98+0x100>

0030ed28 <sub_FF862258>:
  30ed28:	e59ff2dc 	ldr	pc, [pc, #732]	; 30f00c <sub_FFAD3D98+0x104>

0030ed2c <sub_FF8625D4>:
  30ed2c:	e59ff2dc 	ldr	pc, [pc, #732]	; 30f010 <sub_FFAD3D98+0x108>

0030ed30 <sub_FF8625DC>:
  30ed30:	e59ff2dc 	ldr	pc, [pc, #732]	; 30f014 <sub_FFAD3D98+0x10c>

0030ed34 <sub_FF8625E4>:
  30ed34:	e59ff2dc 	ldr	pc, [pc, #732]	; 30f018 <sub_FFAD3D98+0x110>

0030ed38 <sub_FF8625F4>:
  30ed38:	e59ff2dc 	ldr	pc, [pc, #732]	; 30f01c <sub_FFAD3D98+0x114>

0030ed3c <sub_FF86272C>:
  30ed3c:	e59ff2dc 	ldr	pc, [pc, #732]	; 30f020 <sub_FFAD3D98+0x118>

0030ed40 <sub_FF86278C>:
  30ed40:	e59ff2dc 	ldr	pc, [pc, #732]	; 30f024 <sub_FFAD3D98+0x11c>

0030ed44 <sub_FF86280C>:
  30ed44:	e59ff2dc 	ldr	pc, [pc, #732]	; 30f028 <sub_FFAD3D98+0x120>

0030ed48 <sub_FF862934>:
  30ed48:	e59ff2dc 	ldr	pc, [pc, #732]	; 30f02c <sub_FFAD3D98+0x124>

0030ed4c <sub_FF86298C>:
  30ed4c:	e59ff2dc 	ldr	pc, [pc, #732]	; 30f030 <sub_FFAD3D98+0x128>

0030ed50 <sub_FF862A2C>:
  30ed50:	e59ff2dc 	ldr	pc, [pc, #732]	; 30f034 <sub_FFAD3D98+0x12c>

0030ed54 <sub_FF862BA0>:
  30ed54:	e59ff2dc 	ldr	pc, [pc, #732]	; 30f038 <sub_FFAD3D98+0x130>

0030ed58 <sub_FF862E50>:
  30ed58:	e59ff2dc 	ldr	pc, [pc, #732]	; 30f03c <sub_FFAD3D98+0x134>

0030ed5c <sub_FF862EE0>:
  30ed5c:	e59ff2dc 	ldr	pc, [pc, #732]	; 30f040 <sub_FFAD3D98+0x138>

0030ed60 <sub_FF864438>:
  30ed60:	e59ff2dc 	ldr	pc, [pc, #732]	; 30f044 <sub_FFAD3D98+0x13c>

0030ed64 <sub_FF8644A0>:
  30ed64:	e59ff2dc 	ldr	pc, [pc, #732]	; 30f048 <sub_FFAD3D98+0x140>

0030ed68 <sub_FF8644BC>:
  30ed68:	e59ff2dc 	ldr	pc, [pc, #732]	; 30f04c <sub_FFAD3D98+0x144>

0030ed6c <sub_FF8644E8>:
  30ed6c:	e59ff2dc 	ldr	pc, [pc, #732]	; 30f050 <sub_FFAD3D98+0x148>

0030ed70 <sub_FF8644FC>:
  30ed70:	e59ff2dc 	ldr	pc, [pc, #732]	; 30f054 <sub_FFAD3D98+0x14c>

0030ed74 <sub_FF864528>:
  30ed74:	e59ff2dc 	ldr	pc, [pc, #732]	; 30f058 <sub_FFAD3D98+0x150>

0030ed78 <sub_FF8646F8>:
  30ed78:	e59ff2dc 	ldr	pc, [pc, #732]	; 30f05c <sub_FFAD3D98+0x154>

0030ed7c <sub_FF865A7C>:
  30ed7c:	e59ff2dc 	ldr	pc, [pc, #732]	; 30f060 <sub_FFAD3D98+0x158>

0030ed80 <sub_FF869414>:
  30ed80:	e59ff2dc 	ldr	pc, [pc, #732]	; 30f064 <sub_FFAD3D98+0x15c>

0030ed84 <sub_FF8694D4>:
  30ed84:	e59ff2dc 	ldr	pc, [pc, #732]	; 30f068 <sub_FFAD3D98+0x160>

0030ed88 <sub_FF869508>:
  30ed88:	e59ff2dc 	ldr	pc, [pc, #732]	; 30f06c <sub_FFAD3D98+0x164>

0030ed8c <sub_FF86BFF0>:
  30ed8c:	e59ff2dc 	ldr	pc, [pc, #732]	; 30f070 <sub_FFAD3D98+0x168>

0030ed90 <sub_FF86C13C>:
  30ed90:	e59ff2dc 	ldr	pc, [pc, #732]	; 30f074 <sub_FFAD3D98+0x16c>

0030ed94 <sub_FF8717A8>:
  30ed94:	e59ff2dc 	ldr	pc, [pc, #732]	; 30f078 <sub_FFAD3D98+0x170>

0030ed98 <sub_FF871938>:
  30ed98:	e59ff2dc 	ldr	pc, [pc, #732]	; 30f07c <sub_FFAD3D98+0x174>

0030ed9c <sub_FF871B4C>:
  30ed9c:	e59ff2dc 	ldr	pc, [pc, #732]	; 30f080 <sub_FFAD3D98+0x178>

0030eda0 <sub_FF872048>:
  30eda0:	e59ff2dc 	ldr	pc, [pc, #732]	; 30f084 <sub_FFAD3D98+0x17c>

0030eda4 <sub_FF87207C>:
  30eda4:	e59ff2dc 	ldr	pc, [pc, #732]	; 30f088 <sub_FFAD3D98+0x180>

0030eda8 <sub_FF876CF0>:
  30eda8:	e59ff2dc 	ldr	pc, [pc, #732]	; 30f08c <sub_FFAD3D98+0x184>

0030edac <sub_FF878AE8>:
  30edac:	e59ff2dc 	ldr	pc, [pc, #732]	; 30f090 <sub_FFAD3D98+0x188>

0030edb0 <sub_FF878BA0>:
  30edb0:	e59ff2dc 	ldr	pc, [pc, #732]	; 30f094 <sub_FFAD3D98+0x18c>

0030edb4 <sub_FF878BA8>:
  30edb4:	e59ff2dc 	ldr	pc, [pc, #732]	; 30f098 <sub_FFAD3D98+0x190>

0030edb8 <sub_FF879164>:
  30edb8:	e59ff2dc 	ldr	pc, [pc, #732]	; 30f09c <sub_FFAD3D98+0x194>

0030edbc <sub_FF8941A8>:
  30edbc:	e59ff2dc 	ldr	pc, [pc, #732]	; 30f0a0 <sub_FFAD3D98+0x198>

0030edc0 <sub_FF894664>:
  30edc0:	e59ff2dc 	ldr	pc, [pc, #732]	; 30f0a4 <sub_FFAD3D98+0x19c>

0030edc4 <sub_FF8946EC>:
  30edc4:	e59ff2dc 	ldr	pc, [pc, #732]	; 30f0a8 <sub_FFAD3D98+0x1a0>

0030edc8 <sub_FF89496C>:
  30edc8:	e59ff2dc 	ldr	pc, [pc, #732]	; 30f0ac <sub_FFAD3D98+0x1a4>

0030edcc <sub_FF894E34>:
  30edcc:	e59ff2dc 	ldr	pc, [pc, #732]	; 30f0b0 <sub_FFAD3D98+0x1a8>

0030edd0 <sub_FF89CD74>:
  30edd0:	e59ff2dc 	ldr	pc, [pc, #732]	; 30f0b4 <sub_FFAD3D98+0x1ac>

0030edd4 <sub_FF8A10DC>:
  30edd4:	e59ff2dc 	ldr	pc, [pc, #732]	; 30f0b8 <sub_FFAD3D98+0x1b0>

0030edd8 <sub_FF8A11EC>:
  30edd8:	e59ff2dc 	ldr	pc, [pc, #732]	; 30f0bc <sub_FFAD3D98+0x1b4>

0030eddc <sub_FF8A1244>:
  30eddc:	e59ff2dc 	ldr	pc, [pc, #732]	; 30f0c0 <sub_FFAD3D98+0x1b8>

0030ede0 <sub_FF8A129C>:
  30ede0:	e59ff2dc 	ldr	pc, [pc, #732]	; 30f0c4 <sub_FFAD3D98+0x1bc>

0030ede4 <sub_FF8A12F4>:
  30ede4:	e59ff2dc 	ldr	pc, [pc, #732]	; 30f0c8 <sub_FFAD3D98+0x1c0>

0030ede8 <sub_FF8A134C>:
  30ede8:	e59ff2dc 	ldr	pc, [pc, #732]	; 30f0cc <sub_FFAD3D98+0x1c4>

0030edec <sub_FF8A148C>:
  30edec:	e59ff2dc 	ldr	pc, [pc, #732]	; 30f0d0 <sub_FFAD3D98+0x1c8>

0030edf0 <sub_FF8A1544>:
  30edf0:	e59ff2dc 	ldr	pc, [pc, #732]	; 30f0d4 <sub_FFAD3D98+0x1cc>

0030edf4 <sub_FF8A17CC>:
  30edf4:	e59ff2dc 	ldr	pc, [pc, #732]	; 30f0d8 <sub_FFAD3D98+0x1d0>

0030edf8 <sub_FF8A19D0>:
  30edf8:	e59ff2dc 	ldr	pc, [pc, #732]	; 30f0dc <sub_FFAD3D98+0x1d4>

0030edfc <sub_FF8A1C38>:
  30edfc:	e59ff2dc 	ldr	pc, [pc, #732]	; 30f0e0 <sub_FFAD3D98+0x1d8>

0030ee00 <sub_FF8A1E2C>:
  30ee00:	e59ff2dc 	ldr	pc, [pc, #732]	; 30f0e4 <sub_FFAD3D98+0x1dc>

0030ee04 <sub_FF8A21D0>:
  30ee04:	e59ff2dc 	ldr	pc, [pc, #732]	; 30f0e8 <sub_FFAD3D98+0x1e0>

0030ee08 <sub_FF8A2444>:
  30ee08:	e59ff2dc 	ldr	pc, [pc, #732]	; 30f0ec <sub_FFAD3D98+0x1e4>

0030ee0c <sub_FF8A2664>:
  30ee0c:	e59ff2dc 	ldr	pc, [pc, #732]	; 30f0f0 <sub_FFAD3D98+0x1e8>

0030ee10 <sub_FF8A2954>:
  30ee10:	e59ff2dc 	ldr	pc, [pc, #732]	; 30f0f4 <sub_FFAD3D98+0x1ec>

0030ee14 <sub_FF8A2A58>:
  30ee14:	e59ff2dc 	ldr	pc, [pc, #732]	; 30f0f8 <sub_FFAD3D98+0x1f0>

0030ee18 <sub_FF8A2C90>:
  30ee18:	e59ff2dc 	ldr	pc, [pc, #732]	; 30f0fc <sub_FFAD3D98+0x1f4>

0030ee1c <sub_FF8A2E08>:
  30ee1c:	e59ff2dc 	ldr	pc, [pc, #732]	; 30f100 <sub_FFAD3D98+0x1f8>

0030ee20 <sub_FF8A2FA0>:
  30ee20:	e59ff2dc 	ldr	pc, [pc, #732]	; 30f104 <sub_FFAD3D98+0x1fc>

0030ee24 <sub_FF8A30D8>:
  30ee24:	e59ff2dc 	ldr	pc, [pc, #732]	; 30f108 <sub_FFAD3D98+0x200>

0030ee28 <sub_FF8A3320>:
  30ee28:	e59ff2dc 	ldr	pc, [pc, #732]	; 30f10c <sub_FFAD3D98+0x204>

0030ee2c <sub_FF8A42CC>:
  30ee2c:	e59ff2dc 	ldr	pc, [pc, #732]	; 30f110 <sub_FFAD3D98+0x208>

0030ee30 <sub_FF8A4558>:
  30ee30:	e59ff2dc 	ldr	pc, [pc, #732]	; 30f114 <sub_FFAD3D98+0x20c>

0030ee34 <sub_FF8A45B8>:
  30ee34:	e59ff2dc 	ldr	pc, [pc, #732]	; 30f118 <sub_FFAD3D98+0x210>

0030ee38 <sub_FF8A5878>:
  30ee38:	e59ff2dc 	ldr	pc, [pc, #732]	; 30f11c <sub_FFAD3D98+0x214>

0030ee3c <sub_FF8A58A8>:
  30ee3c:	e59ff2dc 	ldr	pc, [pc, #732]	; 30f120 <sub_FFAD3D98+0x218>

0030ee40 <sub_FF8A58EC>:
  30ee40:	e59ff2dc 	ldr	pc, [pc, #732]	; 30f124 <sub_FFAD3D98+0x21c>

0030ee44 <sub_FF8A5A68>:
  30ee44:	e59ff2dc 	ldr	pc, [pc, #732]	; 30f128 <sub_FFAD3D98+0x220>

0030ee48 <sub_FF8A5B14>:
  30ee48:	e59ff2dc 	ldr	pc, [pc, #732]	; 30f12c <sub_FFAD3D98+0x224>

0030ee4c <sub_FF8A5BB4>:
  30ee4c:	e59ff2dc 	ldr	pc, [pc, #732]	; 30f130 <sub_FFAD3D98+0x228>

0030ee50 <sub_FF8A5C4C>:
  30ee50:	e59ff2dc 	ldr	pc, [pc, #732]	; 30f134 <sub_FFAD3D98+0x22c>

0030ee54 <sub_FF8C3BFC>:
  30ee54:	e59ff2dc 	ldr	pc, [pc, #732]	; 30f138 <sub_FFAD3D98+0x230>

0030ee58 <sub_FF8C5194>:
  30ee58:	e59ff2dc 	ldr	pc, [pc, #732]	; 30f13c <sub_FFAD3D98+0x234>

0030ee5c <sub_FF8EDBE0>:
  30ee5c:	e59ff2dc 	ldr	pc, [pc, #732]	; 30f140 <sub_FFAD3D98+0x238>

0030ee60 <sub_FF8EDC88>:
  30ee60:	e59ff2dc 	ldr	pc, [pc, #732]	; 30f144 <sub_FFAD3D98+0x23c>

0030ee64 <sub_FF8EDCC4>:
  30ee64:	e59ff2dc 	ldr	pc, [pc, #732]	; 30f148 <sub_FFAD3D98+0x240>

0030ee68 <sub_FF8F8F48>:
  30ee68:	e59ff2dc 	ldr	pc, [pc, #732]	; 30f14c <sub_FFAD3D98+0x244>

0030ee6c <sub_FF918C14>:
  30ee6c:	e59ff2dc 	ldr	pc, [pc, #732]	; 30f150 <sub_FFAD3D98+0x248>

0030ee70 <sub_FF927F7C>:
  30ee70:	e59ff2dc 	ldr	pc, [pc, #732]	; 30f154 <sub_FFAD3D98+0x24c>

0030ee74 <sub_FF9280D0>:
  30ee74:	e59ff2dc 	ldr	pc, [pc, #732]	; 30f158 <sub_FFAD3D98+0x250>

0030ee78 <sub_FF928204>:
  30ee78:	e59ff2dc 	ldr	pc, [pc, #732]	; 30f15c <sub_FFAD3D98+0x254>

0030ee7c <sub_FF92E3B0>:
  30ee7c:	e59ff2dc 	ldr	pc, [pc, #732]	; 30f160 <sub_FFAD3D98+0x258>

0030ee80 <sub_FF92FDF0>:
  30ee80:	e59ff2dc 	ldr	pc, [pc, #732]	; 30f164 <sub_FFAD3D98+0x25c>

0030ee84 <sub_FF92FE8C>:
  30ee84:	e59ff2dc 	ldr	pc, [pc, #732]	; 30f168 <sub_FFAD3D98+0x260>

0030ee88 <sub_FF9300B4>:
  30ee88:	e59ff2dc 	ldr	pc, [pc, #732]	; 30f16c <sub_FFAD3D98+0x264>

0030ee8c <sub_FF930358>:
  30ee8c:	e59ff2dc 	ldr	pc, [pc, #732]	; 30f170 <sub_FFAD3D98+0x268>

0030ee90 <sub_FF930390>:
  30ee90:	e59ff2dc 	ldr	pc, [pc, #732]	; 30f174 <sub_FFAD3D98+0x26c>

0030ee94 <sub_FF9347C4>:
  30ee94:	e59ff2dc 	ldr	pc, [pc, #732]	; 30f178 <sub_FFAD3D98+0x270>

0030ee98 <sub_FF934844>:
  30ee98:	e59ff2dc 	ldr	pc, [pc, #732]	; 30f17c <sub_FFAD3D98+0x274>

0030ee9c <sub_FF9348A8>:
  30ee9c:	e59ff2dc 	ldr	pc, [pc, #732]	; 30f180 <sub_FFAD3D98+0x278>

0030eea0 <sub_FF934B7C>:
  30eea0:	e59ff2dc 	ldr	pc, [pc, #732]	; 30f184 <sub_FFAD3D98+0x27c>

0030eea4 <sub_FF934D98>:
  30eea4:	e59ff2dc 	ldr	pc, [pc, #732]	; 30f188 <sub_FFAD3D98+0x280>

0030eea8 <sub_FF934F80>:
  30eea8:	e59ff2dc 	ldr	pc, [pc, #732]	; 30f18c <sub_FFAD3D98+0x284>

0030eeac <sub_FF935010>:
  30eeac:	e59ff2dc 	ldr	pc, [pc, #732]	; 30f190 <sub_FFAD3D98+0x288>

0030eeb0 <sub_FF9350C4>:
  30eeb0:	e59ff2dc 	ldr	pc, [pc, #732]	; 30f194 <sub_FFAD3D98+0x28c>

0030eeb4 <sub_FF935180>:
  30eeb4:	e59ff2dc 	ldr	pc, [pc, #732]	; 30f198 <sub_FFAD3D98+0x290>

0030eeb8 <sub_FF9351EC>:
  30eeb8:	e59ff2dc 	ldr	pc, [pc, #732]	; 30f19c <sub_FFAD3D98+0x294>

0030eebc <sub_FF9352C4>:
  30eebc:	e59ff2dc 	ldr	pc, [pc, #732]	; 30f1a0 <sub_FFAD3D98+0x298>

0030eec0 <sub_FF93531C>:
  30eec0:	e59ff2dc 	ldr	pc, [pc, #732]	; 30f1a4 <sub_FFAD3D98+0x29c>

0030eec4 <sub_FF9353A4>:
  30eec4:	e59ff2dc 	ldr	pc, [pc, #732]	; 30f1a8 <sub_FFAD3D98+0x2a0>

0030eec8 <sub_FF9354DC>:
  30eec8:	e59ff2dc 	ldr	pc, [pc, #732]	; 30f1ac <sub_FFAD3D98+0x2a4>

0030eecc <sub_FF93556C>:
  30eecc:	e59ff2dc 	ldr	pc, [pc, #732]	; 30f1b0 <sub_FFAD3D98+0x2a8>

0030eed0 <sub_FF93562C>:
  30eed0:	e59ff2dc 	ldr	pc, [pc, #732]	; 30f1b4 <sub_FFAD3D98+0x2ac>

0030eed4 <sub_FF935A88>:
  30eed4:	e59ff2dc 	ldr	pc, [pc, #732]	; 30f1b8 <sub_FFAD3D98+0x2b0>

0030eed8 <sub_FF935C38>:
  30eed8:	e59ff2dc 	ldr	pc, [pc, #732]	; 30f1bc <sub_FFAD3D98+0x2b4>

0030eedc <sub_FF935E24>:
  30eedc:	e59ff2dc 	ldr	pc, [pc, #732]	; 30f1c0 <sub_FFAD3D98+0x2b8>

0030eee0 <sub_FF935E94>:
  30eee0:	e59ff2dc 	ldr	pc, [pc, #732]	; 30f1c4 <sub_FFAD3D98+0x2bc>

0030eee4 <sub_FF936544>:
  30eee4:	e59ff2dc 	ldr	pc, [pc, #732]	; 30f1c8 <sub_FFAD3D98+0x2c0>

0030eee8 <sub_FF9366B4>:
  30eee8:	e59ff2dc 	ldr	pc, [pc, #732]	; 30f1cc <sub_FFAD3D98+0x2c4>

0030eeec <sub_FF9366F4>:
  30eeec:	e59ff2dc 	ldr	pc, [pc, #732]	; 30f1d0 <sub_FFAD3D98+0x2c8>

0030eef0 <sub_FF936818>:
  30eef0:	e59ff2dc 	ldr	pc, [pc, #732]	; 30f1d4 <sub_FFAD3D98+0x2cc>

0030eef4 <sub_FF936E10>:
  30eef4:	e59ff2dc 	ldr	pc, [pc, #732]	; 30f1d8 <sub_FFAD3D98+0x2d0>

0030eef8 <sub_FFA1E518>:
  30eef8:	e59ff2dc 	ldr	pc, [pc, #732]	; 30f1dc <sub_FFAD3D98+0x2d4>

0030eefc <sub_FFAD1878>:
  30eefc:	e59ff2dc 	ldr	pc, [pc, #732]	; 30f1e0 <sub_FFAD3D98+0x2d8>

0030ef00 <sub_FFAD19E0>:
  30ef00:	e59ff2dc 	ldr	pc, [pc, #732]	; 30f1e4 <sub_FFAD3D98+0x2dc>

0030ef04 <sub_FFAD1AD4>:
  30ef04:	e59ff2dc 	ldr	pc, [pc, #732]	; 30f1e8 <sub_FFAD3D98+0x2e0>

0030ef08 <sub_FFAD3D98>:
  30ef08:	e59ff2dc 	ldr	pc, [pc, #732]	; 30f1ec <sub_FFAD3D98+0x2e4>
  30ef0c:	ff810940 	.word	0xff810940
  30ef10:	ff810fe8 	.word	0xff810fe8
  30ef14:	ff811478 	.word	0xff811478
  30ef18:	ff813548 	.word	0xff813548
  30ef1c:	ff8149b4 	.word	0xff8149b4
  30ef20:	ff814a9c 	.word	0xff814a9c
  30ef24:	ff814e80 	.word	0xff814e80
  30ef28:	ff8153cc 	.word	0xff8153cc
  30ef2c:	ff818ba4 	.word	0xff818ba4
  30ef30:	ff81901c 	.word	0xff81901c
  30ef34:	ff81aef4 	.word	0xff81aef4
  30ef38:	ff81b184 	.word	0xff81b184
  30ef3c:	ff81b1cc 	.word	0xff81b1cc
  30ef40:	ff81c184 	.word	0xff81c184
  30ef44:	ff81fab0 	.word	0xff81fab0
  30ef48:	ff820e1c 	.word	0xff820e1c
  30ef4c:	ff8210c8 	.word	0xff8210c8
  30ef50:	ff8212b8 	.word	0xff8212b8
  30ef54:	ff821848 	.word	0xff821848
  30ef58:	ff82194c 	.word	0xff82194c
  30ef5c:	ff822ab4 	.word	0xff822ab4
  30ef60:	ff823acc 	.word	0xff823acc
  30ef64:	ff823fd4 	.word	0xff823fd4
  30ef68:	ff824944 	.word	0xff824944
  30ef6c:	ff8249d0 	.word	0xff8249d0
  30ef70:	ff826c64 	.word	0xff826c64
  30ef74:	ff827098 	.word	0xff827098
  30ef78:	ff8272dc 	.word	0xff8272dc
  30ef7c:	ff827584 	.word	0xff827584
  30ef80:	ff827664 	.word	0xff827664
  30ef84:	ff8277ec 	.word	0xff8277ec
  30ef88:	ff827858 	.word	0xff827858
  30ef8c:	ff827994 	.word	0xff827994
  30ef90:	ff8279ec 	.word	0xff8279ec
  30ef94:	ff827aac 	.word	0xff827aac
  30ef98:	ff8294d4 	.word	0xff8294d4
  30ef9c:	ff8296dc 	.word	0xff8296dc
  30efa0:	ff82972c 	.word	0xff82972c
  30efa4:	ff829894 	.word	0xff829894
  30efa8:	ff829898 	.word	0xff829898
  30efac:	ff8298b0 	.word	0xff8298b0
  30efb0:	ff8464e8 	.word	0xff8464e8
  30efb4:	ff847b84 	.word	0xff847b84
  30efb8:	ff848c84 	.word	0xff848c84
  30efbc:	ff851f18 	.word	0xff851f18
  30efc0:	ff85351c 	.word	0xff85351c
  30efc4:	ff853c08 	.word	0xff853c08
  30efc8:	ff853c58 	.word	0xff853c58
  30efcc:	ff854bdc 	.word	0xff854bdc
  30efd0:	ff854c1c 	.word	0xff854c1c
  30efd4:	ff854f90 	.word	0xff854f90
  30efd8:	ff855160 	.word	0xff855160
  30efdc:	ff8555b0 	.word	0xff8555b0
  30efe0:	ff85563c 	.word	0xff85563c
  30efe4:	ff85bf28 	.word	0xff85bf28
  30efe8:	ff85d218 	.word	0xff85d218
  30efec:	ff85d3bc 	.word	0xff85d3bc
  30eff0:	ff85d6cc 	.word	0xff85d6cc
  30eff4:	ff85de1c 	.word	0xff85de1c
  30eff8:	ff85e28c 	.word	0xff85e28c
  30effc:	ff85fdfc 	.word	0xff85fdfc
  30f000:	ff860288 	.word	0xff860288
  30f004:	ff861518 	.word	0xff861518
  30f008:	ff8617c4 	.word	0xff8617c4
  30f00c:	ff862258 	.word	0xff862258
  30f010:	ff8625d4 	.word	0xff8625d4
  30f014:	ff8625dc 	.word	0xff8625dc
  30f018:	ff8625e4 	.word	0xff8625e4
  30f01c:	ff8625f4 	.word	0xff8625f4
  30f020:	ff86272c 	.word	0xff86272c
  30f024:	ff86278c 	.word	0xff86278c
  30f028:	ff86280c 	.word	0xff86280c
  30f02c:	ff862934 	.word	0xff862934
  30f030:	ff86298c 	.word	0xff86298c
  30f034:	ff862a2c 	.word	0xff862a2c
  30f038:	ff862ba0 	.word	0xff862ba0
  30f03c:	ff862e50 	.word	0xff862e50
  30f040:	ff862ee0 	.word	0xff862ee0
  30f044:	ff864438 	.word	0xff864438
  30f048:	ff8644a0 	.word	0xff8644a0
  30f04c:	ff8644bc 	.word	0xff8644bc
  30f050:	ff8644e8 	.word	0xff8644e8
  30f054:	ff8644fc 	.word	0xff8644fc
  30f058:	ff864528 	.word	0xff864528
  30f05c:	ff8646f8 	.word	0xff8646f8
  30f060:	ff865a7c 	.word	0xff865a7c
  30f064:	ff869414 	.word	0xff869414
  30f068:	ff8694d4 	.word	0xff8694d4
  30f06c:	ff869508 	.word	0xff869508
  30f070:	ff86bff0 	.word	0xff86bff0
  30f074:	ff86c13c 	.word	0xff86c13c
  30f078:	ff8717a8 	.word	0xff8717a8
  30f07c:	ff871938 	.word	0xff871938
  30f080:	ff871b4c 	.word	0xff871b4c
  30f084:	ff872048 	.word	0xff872048
  30f088:	ff87207c 	.word	0xff87207c
  30f08c:	ff876cf0 	.word	0xff876cf0
  30f090:	ff878ae8 	.word	0xff878ae8
  30f094:	ff878ba0 	.word	0xff878ba0
  30f098:	ff878ba8 	.word	0xff878ba8
  30f09c:	ff879164 	.word	0xff879164
  30f0a0:	ff8941a8 	.word	0xff8941a8
  30f0a4:	ff894664 	.word	0xff894664
  30f0a8:	ff8946ec 	.word	0xff8946ec
  30f0ac:	ff89496c 	.word	0xff89496c
  30f0b0:	ff894e34 	.word	0xff894e34
  30f0b4:	ff89cd74 	.word	0xff89cd74
  30f0b8:	ff8a10dc 	.word	0xff8a10dc
  30f0bc:	ff8a11ec 	.word	0xff8a11ec
  30f0c0:	ff8a1244 	.word	0xff8a1244
  30f0c4:	ff8a129c 	.word	0xff8a129c
  30f0c8:	ff8a12f4 	.word	0xff8a12f4
  30f0cc:	ff8a134c 	.word	0xff8a134c
  30f0d0:	ff8a148c 	.word	0xff8a148c
  30f0d4:	ff8a1544 	.word	0xff8a1544
  30f0d8:	ff8a17cc 	.word	0xff8a17cc
  30f0dc:	ff8a19d0 	.word	0xff8a19d0
  30f0e0:	ff8a1c38 	.word	0xff8a1c38
  30f0e4:	ff8a1e2c 	.word	0xff8a1e2c
  30f0e8:	ff8a21d0 	.word	0xff8a21d0
  30f0ec:	ff8a2444 	.word	0xff8a2444
  30f0f0:	ff8a2664 	.word	0xff8a2664
  30f0f4:	ff8a2954 	.word	0xff8a2954
  30f0f8:	ff8a2a58 	.word	0xff8a2a58
  30f0fc:	ff8a2c90 	.word	0xff8a2c90
  30f100:	ff8a2e08 	.word	0xff8a2e08
  30f104:	ff8a2fa0 	.word	0xff8a2fa0
  30f108:	ff8a30d8 	.word	0xff8a30d8
  30f10c:	ff8a3320 	.word	0xff8a3320
  30f110:	ff8a42cc 	.word	0xff8a42cc
  30f114:	ff8a4558 	.word	0xff8a4558
  30f118:	ff8a45b8 	.word	0xff8a45b8
  30f11c:	ff8a5878 	.word	0xff8a5878
  30f120:	ff8a58a8 	.word	0xff8a58a8
  30f124:	ff8a58ec 	.word	0xff8a58ec
  30f128:	ff8a5a68 	.word	0xff8a5a68
  30f12c:	ff8a5b14 	.word	0xff8a5b14
  30f130:	ff8a5bb4 	.word	0xff8a5bb4
  30f134:	ff8a5c4c 	.word	0xff8a5c4c
  30f138:	ff8c3bfc 	.word	0xff8c3bfc
  30f13c:	ff8c5194 	.word	0xff8c5194
  30f140:	ff8edbe0 	.word	0xff8edbe0
  30f144:	ff8edc88 	.word	0xff8edc88
  30f148:	ff8edcc4 	.word	0xff8edcc4
  30f14c:	ff8f8f48 	.word	0xff8f8f48
  30f150:	ff918c14 	.word	0xff918c14
  30f154:	ff927f7c 	.word	0xff927f7c
  30f158:	ff9280d0 	.word	0xff9280d0
  30f15c:	ff928204 	.word	0xff928204
  30f160:	ff92e3b0 	.word	0xff92e3b0
  30f164:	ff92fdf0 	.word	0xff92fdf0
  30f168:	ff92fe8c 	.word	0xff92fe8c
  30f16c:	ff9300b4 	.word	0xff9300b4
  30f170:	ff930358 	.word	0xff930358
  30f174:	ff930390 	.word	0xff930390
  30f178:	ff9347c4 	.word	0xff9347c4
  30f17c:	ff934844 	.word	0xff934844
  30f180:	ff9348a8 	.word	0xff9348a8
  30f184:	ff934b7c 	.word	0xff934b7c
  30f188:	ff934d98 	.word	0xff934d98
  30f18c:	ff934f80 	.word	0xff934f80
  30f190:	ff935010 	.word	0xff935010
  30f194:	ff9350c4 	.word	0xff9350c4
  30f198:	ff935180 	.word	0xff935180
  30f19c:	ff9351ec 	.word	0xff9351ec
  30f1a0:	ff9352c4 	.word	0xff9352c4
  30f1a4:	ff93531c 	.word	0xff93531c
  30f1a8:	ff9353a4 	.word	0xff9353a4
  30f1ac:	ff9354dc 	.word	0xff9354dc
  30f1b0:	ff93556c 	.word	0xff93556c
  30f1b4:	ff93562c 	.word	0xff93562c
  30f1b8:	ff935a88 	.word	0xff935a88
  30f1bc:	ff935c38 	.word	0xff935c38
  30f1c0:	ff935e24 	.word	0xff935e24
  30f1c4:	ff935e94 	.word	0xff935e94
  30f1c8:	ff936544 	.word	0xff936544
  30f1cc:	ff9366b4 	.word	0xff9366b4
  30f1d0:	ff9366f4 	.word	0xff9366f4
  30f1d4:	ff936818 	.word	0xff936818
  30f1d8:	ff936e10 	.word	0xff936e10
  30f1dc:	ffa1e518 	.word	0xffa1e518
  30f1e0:	ffad1878 	.word	0xffad1878
  30f1e4:	ffad19e0 	.word	0xffad19e0
  30f1e8:	ffad1ad4 	.word	0xffad1ad4
  30f1ec:	ffad3d98 	.word	0xffad3d98

0030f1f0 <exmem_type_count>:
  30f1f0:	00000012 	.word	0x00000012

0030f1f4 <uiprop_count>:
  30f1f4:	00000069 	.word	0x00000069

0030f1f8 <_AllocateUncacheableMemory>:
  30f1f8:	e59ff280 	ldr	pc, [pc, #640]	; 30f480 <_StartEVFMovVGA+0x4>

0030f1fc <_Close>:
  30f1fc:	e59ff280 	ldr	pc, [pc, #640]	; 30f484 <_StartEVFMovVGA+0x8>

0030f200 <_CreateBinarySemaphore>:
  30f200:	e59ff280 	ldr	pc, [pc, #640]	; 30f488 <_StartEVFMovVGA+0xc>

0030f204 <_CreateTask>:
  30f204:	e59ff280 	ldr	pc, [pc, #640]	; 30f48c <_StartEVFMovVGA+0x10>

0030f208 <_DebugAssert>:
  30f208:	e59ff280 	ldr	pc, [pc, #640]	; 30f490 <_StartEVFMovVGA+0x14>

0030f20c <_DeleteDirectory_Fut>:
  30f20c:	e59ff280 	ldr	pc, [pc, #640]	; 30f494 <_StartEVFMovVGA+0x18>

0030f210 <_DeleteFile_Fut>:
  30f210:	e59ff280 	ldr	pc, [pc, #640]	; 30f498 <_StartEVFMovVGA+0x1c>

0030f214 <_DeleteSemaphore>:
  30f214:	e59ff280 	ldr	pc, [pc, #640]	; 30f49c <_StartEVFMovVGA+0x20>

0030f218 <_DoAELock>:
  30f218:	e59ff280 	ldr	pc, [pc, #640]	; 30f4a0 <_StartEVFMovVGA+0x24>

0030f21c <_DoAFLock>:
  30f21c:	e59ff280 	ldr	pc, [pc, #640]	; 30f4a4 <_StartEVFMovVGA+0x28>

0030f220 <_EnterToCompensationEVF>:
  30f220:	e59ff280 	ldr	pc, [pc, #640]	; 30f4a8 <_StartEVFMovVGA+0x2c>

0030f224 <_ExecuteEventProcedure>:
  30f224:	e59ff280 	ldr	pc, [pc, #640]	; 30f4ac <_StartEVFMovVGA+0x30>

0030f228 <_ExitFromCompensationEVF>:
  30f228:	e59ff280 	ldr	pc, [pc, #640]	; 30f4b0 <_StartEVFMovVGA+0x34>

0030f22c <_ExitTask>:
  30f22c:	e59ff280 	ldr	pc, [pc, #640]	; 30f4b4 <_StartEVFMovVGA+0x38>

0030f230 <_ExpCtrlTool_StartContiAE>:
  30f230:	e59ff280 	ldr	pc, [pc, #640]	; 30f4b8 <_StartEVFMovVGA+0x3c>

0030f234 <_ExpCtrlTool_StopContiAE>:
  30f234:	e59ff280 	ldr	pc, [pc, #640]	; 30f4bc <_StartEVFMovVGA+0x40>

0030f238 <_Fclose_Fut>:
  30f238:	e59ff280 	ldr	pc, [pc, #640]	; 30f4c0 <_StartEVFMovVGA+0x44>

0030f23c <_Feof_Fut>:
  30f23c:	e59ff280 	ldr	pc, [pc, #640]	; 30f4c4 <_StartEVFMovVGA+0x48>

0030f240 <_Fflush_Fut>:
  30f240:	e59ff280 	ldr	pc, [pc, #640]	; 30f4c8 <_StartEVFMovVGA+0x4c>

0030f244 <_Fgets_Fut>:
  30f244:	e59ff280 	ldr	pc, [pc, #640]	; 30f4cc <_StartEVFMovVGA+0x50>

0030f248 <_Fopen_Fut>:
  30f248:	e59ff280 	ldr	pc, [pc, #640]	; 30f4d0 <_StartEVFMovVGA+0x54>

0030f24c <_Fread_Fut>:
  30f24c:	e59ff280 	ldr	pc, [pc, #640]	; 30f4d4 <_StartEVFMovVGA+0x58>

0030f250 <_FreeUncacheableMemory>:
  30f250:	e59ff280 	ldr	pc, [pc, #640]	; 30f4d8 <_StartEVFMovVGA+0x5c>

0030f254 <_Fseek_Fut>:
  30f254:	e59ff280 	ldr	pc, [pc, #640]	; 30f4dc <_StartEVFMovVGA+0x60>

0030f258 <_Fwrite_Fut>:
  30f258:	e59ff280 	ldr	pc, [pc, #640]	; 30f4e0 <_StartEVFMovVGA+0x64>

0030f25c <_GetBatteryTemperature>:
  30f25c:	e59ff280 	ldr	pc, [pc, #640]	; 30f4e4 <_StartEVFMovVGA+0x68>

0030f260 <_GetCCDTemperature>:
  30f260:	e59ff280 	ldr	pc, [pc, #640]	; 30f4e8 <_StartEVFMovVGA+0x6c>

0030f264 <_GetCurrentAvValue>:
  30f264:	e59ff280 	ldr	pc, [pc, #640]	; 30f4ec <_StartEVFMovVGA+0x70>

0030f268 <_GetCurrentShutterSpeed>:
  30f268:	e59ff280 	ldr	pc, [pc, #640]	; 30f4f0 <_StartEVFMovVGA+0x74>

0030f26c <_GetDrive_ClusterSize>:
  30f26c:	e59ff280 	ldr	pc, [pc, #640]	; 30f4f4 <_StartEVFMovVGA+0x78>

0030f270 <_GetDrive_FreeClusters>:
  30f270:	e59ff280 	ldr	pc, [pc, #640]	; 30f4f8 <_StartEVFMovVGA+0x7c>

0030f274 <_GetFocusLensSubjectDistance>:
  30f274:	e59ff280 	ldr	pc, [pc, #640]	; 30f4fc <_StartEVFMovVGA+0x80>

0030f278 <_GetFocusLensSubjectDistanceFromLens>:
  30f278:	e59ff280 	ldr	pc, [pc, #640]	; 30f500 <_StartEVFMovVGA+0x84>

0030f27c <_GetKbdState>:
  30f27c:	e59ff280 	ldr	pc, [pc, #640]	; 30f504 <_StartEVFMovVGA+0x88>

0030f280 <_GetMemInfo>:
  30f280:	e59ff280 	ldr	pc, [pc, #640]	; 30f508 <_StartEVFMovVGA+0x8c>

0030f284 <_GetOpticalTemperature>:
  30f284:	e59ff280 	ldr	pc, [pc, #640]	; 30f50c <_StartEVFMovVGA+0x90>

0030f288 <_GetParameterData>:
  30f288:	e59ff280 	ldr	pc, [pc, #640]	; 30f510 <_StartEVFMovVGA+0x94>

0030f28c <_GetPropertyCase>:
  30f28c:	e59ff280 	ldr	pc, [pc, #640]	; 30f514 <_StartEVFMovVGA+0x98>

0030f290 <_GetSystemTime>:
  30f290:	e59ff280 	ldr	pc, [pc, #640]	; 30f518 <_StartEVFMovVGA+0x9c>

0030f294 <_GetVRAMHPixelsSize>:
  30f294:	e59ff280 	ldr	pc, [pc, #640]	; 30f51c <_StartEVFMovVGA+0xa0>

0030f298 <_GetVRAMVPixelsSize>:
  30f298:	e59ff280 	ldr	pc, [pc, #640]	; 30f520 <_StartEVFMovVGA+0xa4>

0030f29c <_GetZoomLensCurrentPoint>:
  30f29c:	e59ff280 	ldr	pc, [pc, #640]	; 30f524 <_StartEVFMovVGA+0xa8>

0030f2a0 <_GetZoomLensCurrentPosition>:
  30f2a0:	e59ff280 	ldr	pc, [pc, #640]	; 30f528 <_StartEVFMovVGA+0xac>

0030f2a4 <_GiveSemaphore>:
  30f2a4:	e59ff280 	ldr	pc, [pc, #640]	; 30f52c <_StartEVFMovVGA+0xb0>

0030f2a8 <_IsStrobeChargeCompleted>:
  30f2a8:	e59ff280 	ldr	pc, [pc, #640]	; 30f530 <_StartEVFMovVGA+0xb4>

0030f2ac <_LEDDrive>:
  30f2ac:	e59ff280 	ldr	pc, [pc, #640]	; 30f534 <_StartEVFMovVGA+0xb8>

0030f2b0 <_LocalTime>:
  30f2b0:	e59ff280 	ldr	pc, [pc, #640]	; 30f538 <_StartEVFMovVGA+0xbc>

0030f2b4 <_LockMainPower>:
  30f2b4:	e59ff280 	ldr	pc, [pc, #640]	; 30f53c <_StartEVFMovVGA+0xc0>

0030f2b8 <_MakeDirectory_Fut>:
  30f2b8:	e59ff280 	ldr	pc, [pc, #640]	; 30f540 <_StartEVFMovVGA+0xc4>

0030f2bc <_MoveFocusLensToDistance>:
  30f2bc:	e59ff280 	ldr	pc, [pc, #640]	; 30f544 <_StartEVFMovVGA+0xc8>

0030f2c0 <_MoveIrisWithAv>:
  30f2c0:	e59ff280 	ldr	pc, [pc, #640]	; 30f548 <_StartEVFMovVGA+0xcc>

0030f2c4 <_MoveZoomLensWithPoint>:
  30f2c4:	e59ff280 	ldr	pc, [pc, #640]	; 30f54c <_StartEVFMovVGA+0xd0>

0030f2c8 <_MoveOpticalZoomAt>:
  30f2c8:	e59ff280 	ldr	pc, [pc, #640]	; 30f550 <_StartEVFMovVGA+0xd4>

0030f2cc <_Open>:
  30f2cc:	e59ff280 	ldr	pc, [pc, #640]	; 30f554 <_StartEVFMovVGA+0xd8>

0030f2d0 <_PB2Rec>:
  30f2d0:	e59ff280 	ldr	pc, [pc, #640]	; 30f558 <_StartEVFMovVGA+0xdc>

0030f2d4 <_PT_MoveDigitalZoomToWide>:
  30f2d4:	e59ff280 	ldr	pc, [pc, #640]	; 30f55c <_StartEVFMovVGA+0xe0>

0030f2d8 <_PT_MoveOpticalZoomAt>:
  30f2d8:	e59ff280 	ldr	pc, [pc, #640]	; 30f560 <_StartEVFMovVGA+0xe4>

0030f2dc <_PT_PlaySound>:
  30f2dc:	e59ff280 	ldr	pc, [pc, #640]	; 30f564 <_StartEVFMovVGA+0xe8>

0030f2e0 <_PostLogicalEventForNotPowerType>:
  30f2e0:	e59ff280 	ldr	pc, [pc, #640]	; 30f568 <_StartEVFMovVGA+0xec>

0030f2e4 <_PostLogicalEventToUI>:
  30f2e4:	e59ff280 	ldr	pc, [pc, #640]	; 30f56c <_StartEVFMovVGA+0xf0>

0030f2e8 <_PutInNdFilter>:
  30f2e8:	e59ff280 	ldr	pc, [pc, #640]	; 30f570 <_StartEVFMovVGA+0xf4>

0030f2ec <_PutOutNdFilter>:
  30f2ec:	e59ff280 	ldr	pc, [pc, #640]	; 30f574 <_StartEVFMovVGA+0xf8>

0030f2f0 <_Read>:
  30f2f0:	e59ff280 	ldr	pc, [pc, #640]	; 30f578 <_StartEVFMovVGA+0xfc>

0030f2f4 <_ReadFastDir>:
  30f2f4:	e59ff280 	ldr	pc, [pc, #640]	; 30f57c <_StartEVFMovVGA+0x100>

0030f2f8 <_Rec2PB>:
  30f2f8:	e59ff280 	ldr	pc, [pc, #640]	; 30f580 <_StartEVFMovVGA+0x104>

0030f2fc <_RefreshPhysicalScreen>:
  30f2fc:	e59ff280 	ldr	pc, [pc, #640]	; 30f584 <_StartEVFMovVGA+0x108>

0030f300 <_RenameFile_Fut>:
  30f300:	e59ff280 	ldr	pc, [pc, #640]	; 30f588 <_StartEVFMovVGA+0x10c>

0030f304 <_Restart>:
  30f304:	e59ff280 	ldr	pc, [pc, #640]	; 30f58c <_StartEVFMovVGA+0x110>

0030f308 <_SetAE_ShutterSpeed>:
  30f308:	e59ff280 	ldr	pc, [pc, #640]	; 30f590 <_StartEVFMovVGA+0x114>

0030f30c <_SetAutoShutdownTime>:
  30f30c:	e59ff280 	ldr	pc, [pc, #640]	; 30f594 <_StartEVFMovVGA+0x118>

0030f310 <_SetCurrentCaptureModeType>:
  30f310:	e59ff280 	ldr	pc, [pc, #640]	; 30f598 <_StartEVFMovVGA+0x11c>

0030f314 <_SetDate>:
  30f314:	e59ff280 	ldr	pc, [pc, #640]	; 30f59c <_StartEVFMovVGA+0x120>

0030f318 <_SetFileAttributes>:
  30f318:	e59ff280 	ldr	pc, [pc, #640]	; 30f5a0 <_StartEVFMovVGA+0x124>

0030f31c <_SetFileTimeStamp>:
  30f31c:	e59ff280 	ldr	pc, [pc, #640]	; 30f5a4 <_StartEVFMovVGA+0x128>

0030f320 <_SetLogicalEventActive>:
  30f320:	e59ff280 	ldr	pc, [pc, #640]	; 30f5a8 <_StartEVFMovVGA+0x12c>

0030f324 <_SetParameterData>:
  30f324:	e59ff280 	ldr	pc, [pc, #640]	; 30f5ac <_StartEVFMovVGA+0x130>

0030f328 <_SetPropertyCase>:
  30f328:	e59ff280 	ldr	pc, [pc, #640]	; 30f5b0 <_StartEVFMovVGA+0x134>

0030f32c <_SetScriptMode>:
  30f32c:	e59ff280 	ldr	pc, [pc, #640]	; 30f5b4 <_StartEVFMovVGA+0x138>

0030f330 <_SleepTask>:
  30f330:	e59ff280 	ldr	pc, [pc, #640]	; 30f5b8 <_StartEVFMovVGA+0x13c>

0030f334 <_TakeSemaphore>:
  30f334:	e59ff280 	ldr	pc, [pc, #640]	; 30f5bc <_StartEVFMovVGA+0x140>

0030f338 <_TurnOffBackLight>:
  30f338:	e59ff280 	ldr	pc, [pc, #640]	; 30f5c0 <_StartEVFMovVGA+0x144>

0030f33c <_TurnOnBackLight>:
  30f33c:	e59ff280 	ldr	pc, [pc, #640]	; 30f5c4 <_StartEVFMovVGA+0x148>

0030f340 <_TurnOnDisplay>:
  30f340:	e59ff280 	ldr	pc, [pc, #640]	; 30f5c8 <_StartEVFMovVGA+0x14c>

0030f344 <_TurnOffDisplay>:
  30f344:	e59ff280 	ldr	pc, [pc, #640]	; 30f5cc <_StartEVFMovVGA+0x150>

0030f348 <_UIFS_WriteFirmInfoToFile>:
  30f348:	e59ff280 	ldr	pc, [pc, #640]	; 30f5d0 <_StartEVFMovVGA+0x154>

0030f34c <_UnlockAE>:
  30f34c:	e59ff280 	ldr	pc, [pc, #640]	; 30f5d4 <_StartEVFMovVGA+0x158>

0030f350 <_UnlockAF>:
  30f350:	e59ff280 	ldr	pc, [pc, #640]	; 30f5d8 <_StartEVFMovVGA+0x15c>

0030f354 <_UnlockMainPower>:
  30f354:	e59ff280 	ldr	pc, [pc, #640]	; 30f5dc <_StartEVFMovVGA+0x160>

0030f358 <_UnsetZoomForMovie>:
  30f358:	e59ff280 	ldr	pc, [pc, #640]	; 30f5e0 <_StartEVFMovVGA+0x164>

0030f35c <_UpdateMBROnFlash>:
  30f35c:	e59ff280 	ldr	pc, [pc, #640]	; 30f5e4 <_StartEVFMovVGA+0x168>

0030f360 <_VbattGet>:
  30f360:	e59ff280 	ldr	pc, [pc, #640]	; 30f5e8 <_StartEVFMovVGA+0x16c>

0030f364 <_Write>:
  30f364:	e59ff280 	ldr	pc, [pc, #640]	; 30f5ec <_StartEVFMovVGA+0x170>

0030f368 <_WriteSDCard>:
  30f368:	e59ff280 	ldr	pc, [pc, #640]	; 30f5f0 <_StartEVFMovVGA+0x174>

0030f36c <__log>:
  30f36c:	e59ff280 	ldr	pc, [pc, #640]	; 30f5f4 <_StartEVFMovVGA+0x178>

0030f370 <__log10>:
  30f370:	e59ff280 	ldr	pc, [pc, #640]	; 30f5f8 <_StartEVFMovVGA+0x17c>

0030f374 <__pow>:
  30f374:	e59ff280 	ldr	pc, [pc, #640]	; 30f5fc <_StartEVFMovVGA+0x180>

0030f378 <__sqrt>:
  30f378:	e59ff280 	ldr	pc, [pc, #640]	; 30f600 <_StartEVFMovVGA+0x184>

0030f37c <_add_ptp_handler>:
  30f37c:	e59ff280 	ldr	pc, [pc, #640]	; 30f604 <_StartEVFMovVGA+0x188>

0030f380 <_apex2us>:
  30f380:	e59ff280 	ldr	pc, [pc, #640]	; 30f608 <_StartEVFMovVGA+0x18c>

0030f384 <_close>:
  30f384:	e59ff280 	ldr	pc, [pc, #640]	; 30f60c <_StartEVFMovVGA+0x190>

0030f388 <_err_init_task>:
  30f388:	e59ff280 	ldr	pc, [pc, #640]	; 30f610 <_StartEVFMovVGA+0x194>

0030f38c <_exmem_alloc>:
  30f38c:	e59ff280 	ldr	pc, [pc, #640]	; 30f614 <_StartEVFMovVGA+0x198>

0030f390 <_exmem_ualloc>:
  30f390:	e59ff280 	ldr	pc, [pc, #640]	; 30f618 <_StartEVFMovVGA+0x19c>

0030f394 <_exmem_ufree>:
  30f394:	e59ff280 	ldr	pc, [pc, #640]	; 30f61c <_StartEVFMovVGA+0x1a0>

0030f398 <_free>:
  30f398:	e59ff280 	ldr	pc, [pc, #640]	; 30f620 <_StartEVFMovVGA+0x1a4>

0030f39c <_get_nd_value>:
  30f39c:	e59ff280 	ldr	pc, [pc, #640]	; 30f624 <_StartEVFMovVGA+0x1a8>

0030f3a0 <_get_current_nd_value>:
  30f3a0:	e59ff280 	ldr	pc, [pc, #640]	; 30f628 <_StartEVFMovVGA+0x1ac>

0030f3a4 <_get_current_deltasv>:
  30f3a4:	e59ff280 	ldr	pc, [pc, #640]	; 30f62c <_StartEVFMovVGA+0x1b0>

0030f3a8 <_GetCurrentDriveBaseSvValue>:
  30f3a8:	e59ff280 	ldr	pc, [pc, #640]	; 30f630 <_StartEVFMovVGA+0x1b4>

0030f3ac <_kbd_p1_f>:
  30f3ac:	e59ff280 	ldr	pc, [pc, #640]	; 30f634 <_StartEVFMovVGA+0x1b8>

0030f3b0 <_kbd_p1_f_cont>:
  30f3b0:	e59ff280 	ldr	pc, [pc, #640]	; 30f638 <_StartEVFMovVGA+0x1bc>

0030f3b4 <_kbd_p2_f>:
  30f3b4:	e59ff280 	ldr	pc, [pc, #640]	; 30f63c <_StartEVFMovVGA+0x1c0>

0030f3b8 <_kbd_read_keys>:
  30f3b8:	e59ff280 	ldr	pc, [pc, #640]	; 30f640 <_StartEVFMovVGA+0x1c4>

0030f3bc <_kbd_read_keys_r2>:
  30f3bc:	e59ff280 	ldr	pc, [pc, #640]	; 30f644 <_StartEVFMovVGA+0x1c8>

0030f3c0 <_lseek>:
  30f3c0:	e59ff280 	ldr	pc, [pc, #640]	; 30f648 <_StartEVFMovVGA+0x1cc>

0030f3c4 <_malloc>:
  30f3c4:	e59ff280 	ldr	pc, [pc, #640]	; 30f64c <_StartEVFMovVGA+0x1d0>

0030f3c8 <_memcmp>:
  30f3c8:	e59ff280 	ldr	pc, [pc, #640]	; 30f650 <_StartEVFMovVGA+0x1d4>

0030f3cc <_memcpy>:
  30f3cc:	e59ff280 	ldr	pc, [pc, #640]	; 30f654 <_StartEVFMovVGA+0x1d8>

0030f3d0 <_memset>:
  30f3d0:	e59ff280 	ldr	pc, [pc, #640]	; 30f658 <_StartEVFMovVGA+0x1dc>

0030f3d4 <_mkdir>:
  30f3d4:	e59ff280 	ldr	pc, [pc, #640]	; 30f65c <_StartEVFMovVGA+0x1e0>

0030f3d8 <_mktime_ext>:
  30f3d8:	e59ff280 	ldr	pc, [pc, #640]	; 30f660 <_StartEVFMovVGA+0x1e4>

0030f3dc <_open>:
  30f3dc:	e59ff280 	ldr	pc, [pc, #640]	; 30f664 <_StartEVFMovVGA+0x1e8>

0030f3e0 <_OpenFastDir>:
  30f3e0:	e59ff280 	ldr	pc, [pc, #640]	; 30f668 <_StartEVFMovVGA+0x1ec>

0030f3e4 <_closedir>:
  30f3e4:	e59ff280 	ldr	pc, [pc, #640]	; 30f66c <_StartEVFMovVGA+0x1f0>

0030f3e8 <_qsort>:
  30f3e8:	e59ff280 	ldr	pc, [pc, #640]	; 30f670 <_StartEVFMovVGA+0x1f4>

0030f3ec <_rand>:
  30f3ec:	e59ff280 	ldr	pc, [pc, #640]	; 30f674 <_StartEVFMovVGA+0x1f8>

0030f3f0 <_realloc>:
  30f3f0:	e59ff280 	ldr	pc, [pc, #640]	; 30f678 <_StartEVFMovVGA+0x1fc>

0030f3f4 <_reboot_fw_update>:
  30f3f4:	e59ff280 	ldr	pc, [pc, #640]	; 30f67c <_StartEVFMovVGA+0x200>

0030f3f8 <_set_control_event>:
  30f3f8:	e59ff280 	ldr	pc, [pc, #640]	; 30f680 <_StartEVFMovVGA+0x204>

0030f3fc <_srand>:
  30f3fc:	e59ff280 	ldr	pc, [pc, #640]	; 30f684 <_StartEVFMovVGA+0x208>

0030f400 <_stat>:
  30f400:	e59ff280 	ldr	pc, [pc, #640]	; 30f688 <_StartEVFMovVGA+0x20c>

0030f404 <_strcat>:
  30f404:	e59ff280 	ldr	pc, [pc, #640]	; 30f68c <_StartEVFMovVGA+0x210>

0030f408 <_strchr>:
  30f408:	e59ff280 	ldr	pc, [pc, #640]	; 30f690 <_StartEVFMovVGA+0x214>

0030f40c <_strcmp>:
  30f40c:	e59ff280 	ldr	pc, [pc, #640]	; 30f694 <_StartEVFMovVGA+0x218>

0030f410 <_strcpy>:
  30f410:	e59ff280 	ldr	pc, [pc, #640]	; 30f698 <_StartEVFMovVGA+0x21c>

0030f414 <_strftime>:
  30f414:	e59ff280 	ldr	pc, [pc, #640]	; 30f69c <_StartEVFMovVGA+0x220>

0030f418 <_strlen>:
  30f418:	e59ff280 	ldr	pc, [pc, #640]	; 30f6a0 <_StartEVFMovVGA+0x224>

0030f41c <_strncmp>:
  30f41c:	e59ff280 	ldr	pc, [pc, #640]	; 30f6a4 <_StartEVFMovVGA+0x228>

0030f420 <_strncpy>:
  30f420:	e59ff280 	ldr	pc, [pc, #640]	; 30f6a8 <_StartEVFMovVGA+0x22c>

0030f424 <_strrchr>:
  30f424:	e59ff280 	ldr	pc, [pc, #640]	; 30f6ac <_StartEVFMovVGA+0x230>

0030f428 <_strtol>:
  30f428:	e59ff280 	ldr	pc, [pc, #640]	; 30f6b0 <_StartEVFMovVGA+0x234>

0030f42c <_strtolx>:
  30f42c:	e59ff280 	ldr	pc, [pc, #640]	; 30f6b4 <_StartEVFMovVGA+0x238>

0030f430 <_time>:
  30f430:	e59ff280 	ldr	pc, [pc, #640]	; 30f6b8 <_StartEVFMovVGA+0x23c>

0030f434 <_vsprintf>:
  30f434:	e59ff280 	ldr	pc, [pc, #640]	; 30f6bc <_StartEVFMovVGA+0x240>

0030f438 <_EngDrvRead>:
  30f438:	e59ff280 	ldr	pc, [pc, #640]	; 30f6c0 <_StartEVFMovVGA+0x244>

0030f43c <_PTM_GetCurrentItem>:
  30f43c:	e59ff280 	ldr	pc, [pc, #640]	; 30f6c4 <_StartEVFMovVGA+0x248>

0030f440 <_CancelHPTimer>:
  30f440:	e59ff280 	ldr	pc, [pc, #640]	; 30f6c8 <_StartEVFMovVGA+0x24c>

0030f444 <_SetHPTimerAfterNow>:
  30f444:	e59ff280 	ldr	pc, [pc, #640]	; 30f6cc <_StartEVFMovVGA+0x250>

0030f448 <_PT_MFOn>:
  30f448:	e59ff280 	ldr	pc, [pc, #640]	; 30f6d0 <_StartEVFMovVGA+0x254>

0030f44c <_PT_MFOff>:
  30f44c:	e59ff280 	ldr	pc, [pc, #640]	; 30f6d4 <_StartEVFMovVGA+0x258>

0030f450 <_GetAdChValue>:
  30f450:	e59ff280 	ldr	pc, [pc, #640]	; 30f6d8 <_StartEVFMovVGA+0x25c>

0030f454 <_get_ptp_buf_size>:
  30f454:	e59ff280 	ldr	pc, [pc, #640]	; 30f6dc <_StartEVFMovVGA+0x260>

0030f458 <_get_ptp_file_buf>:
  30f458:	e59ff280 	ldr	pc, [pc, #640]	; 30f6e0 <_StartEVFMovVGA+0x264>

0030f45c <_SetVideoOutType>:
  30f45c:	e59ff280 	ldr	pc, [pc, #640]	; 30f6e4 <_StartEVFMovVGA+0x268>

0030f460 <_GetVideoOutType>:
  30f460:	e59ff280 	ldr	pc, [pc, #640]	; 30f6e8 <_StartEVFMovVGA+0x26c>

0030f464 <_StartMjpegMaking>:
  30f464:	e59ff280 	ldr	pc, [pc, #640]	; 30f6ec <_StartEVFMovVGA+0x270>

0030f468 <_StopMjpegMaking>:
  30f468:	e59ff280 	ldr	pc, [pc, #640]	; 30f6f0 <_StartEVFMovVGA+0x274>

0030f46c <_GetContinuousMovieJpegVRAMData>:
  30f46c:	e59ff280 	ldr	pc, [pc, #640]	; 30f6f4 <_StartEVFMovVGA+0x278>

0030f470 <_GetMovieJpegVRAMHPixelsSize>:
  30f470:	e59ff280 	ldr	pc, [pc, #640]	; 30f6f8 <_StartEVFMovVGA+0x27c>

0030f474 <_GetMovieJpegVRAMVPixelsSize>:
  30f474:	e59ff280 	ldr	pc, [pc, #640]	; 30f6fc <_StartEVFMovVGA+0x280>

0030f478 <_StopContinuousVRAMData>:
  30f478:	e59ff280 	ldr	pc, [pc, #640]	; 30f700 <_StartEVFMovVGA+0x284>

0030f47c <_StartEVFMovVGA>:
  30f47c:	e59ff280 	ldr	pc, [pc, #640]	; 30f704 <_StartEVFMovVGA+0x288>
  30f480:	ff827b68 	.word	0xff827b68
  30f484:	ff823af4 	.word	0xff823af4
  30f488:	ff827348 	.word	0xff827348
  30f48c:	ff81aef4 	.word	0xff81aef4
  30f490:	ff81b1cc 	.word	0xff81b1cc
  30f494:	ff823484 	.word	0xff823484
  30f498:	ff8233a0 	.word	0xff8233a0
  30f49c:	ff827408 	.word	0xff827408
  30f4a0:	ff8258c4 	.word	0xff8258c4
  30f4a4:	ff8255d8 	.word	0xff8255d8
  30f4a8:	ff82582c 	.word	0xff82582c
  30f4ac:	ff86dac0 	.word	0xff86dac0
  30f4b0:	ff825870 	.word	0xff825870
  30f4b4:	ff81b184 	.word	0xff81b184
  30f4b8:	ff830d00 	.word	0xff830d00
  30f4bc:	ff830e44 	.word	0xff830e44
  30f4c0:	ff82351c 	.word	0xff82351c
  30f4c4:	ff823708 	.word	0xff823708
  30f4c8:	ff823744 	.word	0xff823744
  30f4cc:	ff823670 	.word	0xff823670
  30f4d0:	ff8234dc 	.word	0xff8234dc
  30f4d4:	ff8235c8 	.word	0xff8235c8
  30f4d8:	ff827ba8 	.word	0xff827ba8
  30f4dc:	ff8236bc 	.word	0xff8236bc
  30f4e0:	ff82361c 	.word	0xff82361c
  30f4e4:	ff848cf4 	.word	0xff848cf4
  30f4e8:	ff848c84 	.word	0xff848c84
  30f4ec:	ff928280 	.word	0xff928280
  30f4f0:	ff893d64 	.word	0xff893d64
  30f4f4:	ff8554ac 	.word	0xff8554ac
  30f4f8:	ff855514 	.word	0xff855514
  30f4fc:	ff927344 	.word	0xff927344
  30f500:	ff92772c 	.word	0xff92772c
  30f504:	ff846248 	.word	0xff846248
  30f508:	ff813c24 	.word	0xff813c24
  30f50c:	ff848d64 	.word	0xff848d64
  30f510:	ff95a770 	.word	0xff95a770
  30f514:	ff8717a8 	.word	0xff8717a8
  30f518:	ffa3d910 	.word	0xffa3d910
  30f51c:	ff8c4160 	.word	0xff8c4160
  30f520:	ff8c416c 	.word	0xff8c416c
  30f524:	ff92b9cc 	.word	0xff92b9cc
  30f528:	ffa337f0 	.word	0xffa337f0
  30f52c:	ff827584 	.word	0xff827584
  30f530:	ff8ab714 	.word	0xff8ab714
  30f534:	ff8459e8 	.word	0xff8459e8
  30f538:	ff86b25c 	.word	0xff86b25c
  30f53c:	ff878ec8 	.word	0xff878ec8
  30f540:	ff823414 	.word	0xff823414
  30f544:	ffa9e3fc 	.word	0xffa9e3fc
  30f548:	ffa3a93c 	.word	0xffa3a93c
  30f54c:	ffa3aec4 	.word	0xffa3aec4
  30f550:	ff825004 	.word	0xff825004
  30f554:	ff823acc 	.word	0xff823acc
  30f558:	ff87bf0c 	.word	0xff87bf0c
  30f55c:	ff85f93c 	.word	0xff85f93c
  30f560:	ff85f914 	.word	0xff85f914
  30f564:	ff85f28c 	.word	0xff85f28c
  30f568:	ff876ca4 	.word	0xff876ca4
  30f56c:	ff876cf0 	.word	0xff876cf0
  30f570:	ffa3ad28 	.word	0xffa3ad28
  30f574:	ffa3ad4c 	.word	0xffa3ad4c
  30f578:	ff819a4c 	.word	0xff819a4c
  30f57c:	ffa21ca0 	.word	0xffa21ca0
  30f580:	ff87a8a4 	.word	0xff87a8a4
  30f584:	ff9b8424 	.word	0xff9b8424
  30f588:	ff82334c 	.word	0xff82334c
  30f58c:	ff8293dc 	.word	0xff8293dc
  30f590:	ffaa0bc8 	.word	0xffaa0bc8
  30f594:	ff878f3c 	.word	0xff878f3c
  30f598:	ff8800bc 	.word	0xff8800bc
  30f59c:	ffaa261c 	.word	0xffaa261c
  30f5a0:	ff823e20 	.word	0xff823e20
  30f5a4:	ff823dd0 	.word	0xff823dd0
  30f5a8:	ff878c18 	.word	0xff878c18
  30f5ac:	ff95a6e0 	.word	0xff95a6e0
  30f5b0:	ff8716a0 	.word	0xff8716a0
  30f5b4:	ff878c68 	.word	0xff878c68
  30f5b8:	ff8277ec 	.word	0xff8277ec
  30f5bc:	ff8274b4 	.word	0xff8274b4
  30f5c0:	ff886078 	.word	0xff886078
  30f5c4:	ff886060 	.word	0xff886060
  30f5c8:	ff841ea8 	.word	0xff841ea8
  30f5cc:	ff841eb8 	.word	0xff841eb8
  30f5d0:	ff94b858 	.word	0xff94b858
  30f5d4:	ff8258e8 	.word	0xff8258e8
  30f5d8:	ff825610 	.word	0xff825610
  30f5dc:	ff878e1c 	.word	0xff878e1c
  30f5e0:	ff9607a0 	.word	0xff9607a0
  30f5e4:	ff8552ec 	.word	0xff8552ec
  30f5e8:	ff820570 	.word	0xff820570
  30f5ec:	ff823ba0 	.word	0xff823ba0
  30f5f0:	ff918858 	.word	0xff918858
  30f5f4:	ffad3158 	.word	0xffad3158
  30f5f8:	ffad1de4 	.word	0xffad1de4
  30f5fc:	ffad1f54 	.word	0xffad1f54
  30f600:	ffad4db4 	.word	0xffad4db4
  30f604:	ff9ef744 	.word	0xff9ef744
  30f608:	ff9b9440 	.word	0xff9b9440
  30f60c:	ff819864 	.word	0xff819864
  30f610:	ff814e80 	.word	0xff814e80
  30f614:	ff86c19c 	.word	0xff86c19c
  30f618:	ff86bff0 	.word	0xff86bff0
  30f61c:	ff86c13c 	.word	0xff86c13c
  30f620:	ff813a7c 	.word	0xff813a7c
  30f624:	ffa31344 	.word	0xffa31344
  30f628:	ffa31300 	.word	0xffa31300
  30f62c:	ff8948f4 	.word	0xff8948f4
  30f630:	ff8995e0 	.word	0xff8995e0
  30f634:	ff821ca0 	.word	0xff821ca0
  30f638:	ff821cac 	.word	0xff821cac
  30f63c:	ff8214b8 	.word	0xff8214b8
  30f640:	ff821ba4 	.word	0xff821ba4
  30f644:	ff845de0 	.word	0xff845de0
  30f648:	ff823c34 	.word	0xff823c34
  30f64c:	ff8139a8 	.word	0xff8139a8
  30f650:	ff81cbb4 	.word	0xff81cbb4
  30f654:	ff8928f4 	.word	0xff8928f4
  30f658:	ff9b8778 	.word	0xff9b8778
  30f65c:	ff823e98 	.word	0xff823e98
  30f660:	ff893160 	.word	0xff893160
  30f664:	ff8197b4 	.word	0xff8197b4
  30f668:	ffa21c0c 	.word	0xffa21c0c
  30f66c:	ffa21d70 	.word	0xffa21d70
  30f670:	ffa84fc8 	.word	0xffa84fc8
  30f674:	ff81ccbc 	.word	0xff81ccbc
  30f678:	ff813b5c 	.word	0xff813b5c
  30f67c:	ffa296a0 	.word	0xffa296a0
  30f680:	ff878894 	.word	0xff878894
  30f684:	ff81ccb0 	.word	0xff81ccb0
  30f688:	ff823d00 	.word	0xff823d00
  30f68c:	ff892708 	.word	0xff892708
  30f690:	ff892790 	.word	0xff892790
  30f694:	ff81cb4c 	.word	0xff81cb4c
  30f698:	ff81cb34 	.word	0xff81cb34
  30f69c:	ff892b68 	.word	0xff892b68
  30f6a0:	ff81cb90 	.word	0xff81cb90
  30f6a4:	ff892744 	.word	0xff892744
  30f6a8:	ff82d678 	.word	0xff82d678
  30f6ac:	ff9b8750 	.word	0xff9b8750
  30f6b0:	ff82d8b0 	.word	0xff82d8b0
  30f6b4:	ff82d6b4 	.word	0xff82d6b4
  30f6b8:	ff86b83c 	.word	0xff86b83c
  30f6bc:	ff81caf8 	.word	0xff81caf8
  30f6c0:	ff822ae0 	.word	0xff822ae0
  30f6c4:	ff879774 	.word	0xff879774
  30f6c8:	ff86cffc 	.word	0xff86cffc
  30f6cc:	ff86cef4 	.word	0xff86cef4
  30f6d0:	ff85f9b4 	.word	0xff85f9b4
  30f6d4:	ff85f9c4 	.word	0xff85f9c4
  30f6d8:	ff843b78 	.word	0xff843b78
  30f6dc:	ff8c6a98 	.word	0xff8c6a98
  30f6e0:	ff9f10c8 	.word	0xff9f10c8
  30f6e4:	ffaa13b4 	.word	0xffaa13b4
  30f6e8:	ffaa1318 	.word	0xffaa1318
  30f6ec:	ff9e8dd8 	.word	0xff9e8dd8
  30f6f0:	ff9e8df8 	.word	0xff9e8df8
  30f6f4:	ffaa234c 	.word	0xffaa234c
  30f6f8:	ff8c4178 	.word	0xff8c4178
  30f6fc:	ff8c4184 	.word	0xff8c4184
  30f700:	ff8c425c 	.word	0xff8c425c
  30f704:	ff9e8944 	.word	0xff9e8944

0030f708 <_GetDrive_TotalClusters>:
  30f708:	e59ff014 	ldr	pc, [pc, #20]	; 30f724 <_platformsub_kbd_fetch_data+0x4>

0030f70c <_kbd_pwr_off>:
  30f70c:	e59ff014 	ldr	pc, [pc, #20]	; 30f728 <_platformsub_kbd_fetch_data+0x8>

0030f710 <_kbd_pwr_on>:
  30f710:	e59ff010 	ldr	pc, [pc, #16]	; 30f728 <_platformsub_kbd_fetch_data+0x8>

0030f714 <_SetZoomActuatorSpeedPercent>:
  30f714:	e59ff00c 	ldr	pc, [pc, #12]	; 30f728 <_platformsub_kbd_fetch_data+0x8>

0030f718 <_MakeAFScan>:
  30f718:	e59ff00c 	ldr	pc, [pc, #12]	; 30f72c <_platformsub_kbd_fetch_data+0xc>

0030f71c <_ScreenLock>:
  30f71c:	e59ff00c 	ldr	pc, [pc, #12]	; 30f730 <_platformsub_kbd_fetch_data+0x10>

0030f720 <_platformsub_kbd_fetch_data>:
  30f720:	e59ff00c 	ldr	pc, [pc, #12]	; 30f734 <_platformsub_kbd_fetch_data+0x14>
  30f724:	ff85557c 	.word	0xff85557c
  30f728:	ff81093c 	.word	0xff81093c
  30f72c:	ff933e54 	.word	0xff933e54
  30f730:	ff9b83d0 	.word	0xff9b83d0
  30f734:	ff846248 	.word	0xff846248

0030f738 <capt_seq_hook_raw_here>:
  30f738:	e92d5fff 	push	{r0, r1, r2, r3, r4, r5, r6, r7, r8, r9, sl, fp, ip, lr}
  30f73c:	e59f4024 	ldr	r4, [pc, #36]	; 30f768 <capt_seq_hook_raw_here+0x30>
  30f740:	e3a03001 	mov	r3, #1
  30f744:	e5843000 	str	r3, [r4]
  30f748:	eb00515f 	bl	323ccc <__core_rawdata_available_from_arm>
  30f74c:	e5943000 	ldr	r3, [r4]
  30f750:	e3530002 	cmp	r3, #2
  30f754:	0a000002 	beq	30f764 <capt_seq_hook_raw_here+0x2c>
  30f758:	e3a0000a 	mov	r0, #10
  30f75c:	ebfffef3 	bl	30f330 <_SleepTask>
  30f760:	eafffff9 	b	30f74c <capt_seq_hook_raw_here+0x14>
  30f764:	e8bd9fff 	pop	{r0, r1, r2, r3, r4, r5, r6, r7, r8, r9, sl, fp, ip, pc}
  30f768:	0032e3f8 	.word	0x0032e3f8

0030f76c <wait_until_remote_button_is_released>:
  30f76c:	e92d5fff 	push	{r0, r1, r2, r3, r4, r5, r6, r7, r8, r9, sl, fp, ip, lr}
  30f770:	e10f0000 	mrs	r0, CPSR
  30f774:	e52d0004 	push	{r0}		; (str r0, [sp, #-4]!)
  30f778:	e59d0004 	ldr	r0, [sp, #4]
  30f77c:	eb00515f 	bl	323d00 <___wait_until_remote_button_is_released_from_arm>
  30f780:	e49d0004 	pop	{r0}		; (ldr r0, [sp], #4)
  30f784:	e12ff000 	msr	CPSR_fsxc, r0
  30f788:	e8bd5fff 	pop	{r0, r1, r2, r3, r4, r5, r6, r7, r8, r9, sl, fp, ip, lr}
  30f78c:	e12fff1e 	bx	lr

0030f790 <hook_raw_save_complete>:
  30f790:	e3a02002 	mov	r2, #2
  30f794:	e59f3004 	ldr	r3, [pc, #4]	; 30f7a0 <hook_raw_save_complete+0x10>
  30f798:	e5832000 	str	r2, [r3]
  30f79c:	e12fff1e 	bx	lr
  30f7a0:	0032e3f8 	.word	0x0032e3f8

0030f7a4 <capt_seq_hook_set_nr>:
  30f7a4:	e92d5fff 	push	{r0, r1, r2, r3, r4, r5, r6, r7, r8, r9, sl, fp, ip, lr}
  30f7a8:	e59f3034 	ldr	r3, [pc, #52]	; 30f7e4 <capt_seq_hook_set_nr+0x40>
  30f7ac:	e5933034 	ldr	r3, [r3, #52]	; 0x34
  30f7b0:	e3530001 	cmp	r3, #1
  30f7b4:	0a000001 	beq	30f7c0 <capt_seq_hook_set_nr+0x1c>
  30f7b8:	e3530002 	cmp	r3, #2
  30f7bc:	1a000001 	bne	30f7c8 <capt_seq_hook_set_nr+0x24>
  30f7c0:	e3a02a09 	mov	r2, #36864	; 0x9000
  30f7c4:	e5823268 	str	r3, [r2, #616]	; 0x268
  30f7c8:	e3a00000 	mov	r0, #0
  30f7cc:	ebffff17 	bl	30f430 <_time>
  30f7d0:	e59f4010 	ldr	r4, [pc, #16]	; 30f7e8 <capt_seq_hook_set_nr+0x44>
  30f7d4:	e58400b8 	str	r0, [r4, #184]	; 0xb8
  30f7d8:	eb004a90 	bl	322220 <get_tick_count>
  30f7dc:	e58400bc 	str	r0, [r4, #188]	; 0xbc
  30f7e0:	e8bd9fff 	pop	{r0, r1, r2, r3, r4, r5, r6, r7, r8, r9, sl, fp, ip, pc}
  30f7e4:	0033111c 	.word	0x0033111c
  30f7e8:	0032b718 	.word	0x0032b718

0030f7ec <capt_seq_task>:
  30f7ec:	e92d43f8 	push	{r3, r4, r5, r6, r7, r8, r9, lr}
  30f7f0:	e59f6ba8 	ldr	r6, [pc, #2984]	; 3103a0 <sub_FF893F18_my+0x68>
  30f7f4:	e59f4ba8 	ldr	r4, [pc, #2984]	; 3103a4 <sub_FF893F18_my+0x6c>
  30f7f8:	e3a09001 	mov	r9, #1
  30f7fc:	e3a07000 	mov	r7, #0

0030f800 <loc_FF861D10>:
  30f800:	e596000c 	ldr	r0, [r6, #12]
  30f804:	e3a02000 	mov	r2, #0
  30f808:	e1a0100d 	mov	r1, sp
  30f80c:	ebfffd1f 	bl	30ec90 <sub_FF827098>
  30f810:	e3100001 	tst	r0, #1
  30f814:	0a000004 	beq	30f82c <loc_FF861D3C>
  30f818:	e59f1b88 	ldr	r1, [pc, #2952]	; 3103a8 <sub_FF893F18_my+0x70>
  30f81c:	e59f0b88 	ldr	r0, [pc, #2952]	; 3103ac <sub_FF893F18_my+0x74>
  30f820:	ebfffd0c 	bl	30ec58 <sub_FF81B1CC>
  30f824:	ebfffd0a 	bl	30ec54 <sub_FF81B184>
  30f828:	e8bd83f8 	pop	{r3, r4, r5, r6, r7, r8, r9, pc}

0030f82c <loc_FF861D3C>:
  30f82c:	e59d0000 	ldr	r0, [sp]
  30f830:	e5901000 	ldr	r1, [r0]
  30f834:	e351001f 	cmp	r1, #31
  30f838:	908ff101 	addls	pc, pc, r1, lsl #2
  30f83c:	ea000097 	b	30faa0 <loc_FF861FA0>

0030f840 <loc_FF861D50>:
  30f840:	ea00001e 	b	30f8c0 <loc_FF861DD0>

0030f844 <loc_FF861D54>:
  30f844:	ea00003a 	b	30f934 <loc_FF861E34>

0030f848 <loc_FF861D58>:
  30f848:	ea00003b 	b	30f93c <loc_FF861E3C>

0030f84c <loc_FF861D5C>:
  30f84c:	ea000040 	b	30f954 <loc_FF861E54>

0030f850 <loc_FF861D60>:
  30f850:	ea00003c 	b	30f948 <loc_FF861E48>

0030f854 <loc_FF861D64>:
  30f854:	ea000040 	b	30f95c <loc_FF861E5C>

0030f858 <loc_FF861D68>:
  30f858:	ea000041 	b	30f964 <loc_FF861E64>

0030f85c <loc_FF861D6C>:
  30f85c:	ea000042 	b	30f96c <loc_FF861E6C>

0030f860 <loc_FF861D70>:
  30f860:	ea000057 	b	30f9c4 <loc_FF861EC4>

0030f864 <loc_FF861D74>:
  30f864:	ea000060 	b	30f9ec <loc_FF861EEC>

0030f868 <loc_FF861D78>:
  30f868:	ea000058 	b	30f9d0 <loc_FF861ED0>

0030f86c <loc_FF861D7C>:
  30f86c:	ea00005a 	b	30f9dc <loc_FF861EDC>

0030f870 <loc_FF861D80>:
  30f870:	ea00005b 	b	30f9e4 <loc_FF861EE4>

0030f874 <loc_FF861D84>:
  30f874:	ea00005e 	b	30f9f4 <loc_FF861EF4>

0030f878 <loc_FF861D88>:
  30f878:	ea00005f 	b	30f9fc <loc_FF861EFC>

0030f87c <loc_FF861D8C>:
  30f87c:	ea000060 	b	30fa04 <loc_FF861F04>

0030f880 <loc_FF861D90>:
  30f880:	ea000061 	b	30fa0c <loc_FF861F0C>

0030f884 <loc_FF861D94>:
  30f884:	ea000062 	b	30fa14 <loc_FF861F14>

0030f888 <loc_FF861D98>:
  30f888:	ea000063 	b	30fa1c <loc_FF861F1C>

0030f88c <loc_FF861D9C>:
  30f88c:	ea000064 	b	30fa24 <loc_FF861F24>

0030f890 <loc_FF861DA0>:
  30f890:	ea000066 	b	30fa30 <loc_FF861F30>

0030f894 <loc_FF861DA4>:
  30f894:	ea000067 	b	30fa38 <loc_FF861F38>

0030f898 <loc_FF861DA8>:
  30f898:	ea000068 	b	30fa40 <loc_FF861F40>

0030f89c <loc_FF861DAC>:
  30f89c:	ea000069 	b	30fa48 <loc_FF861F48>

0030f8a0 <loc_FF861DB0>:
  30f8a0:	ea00006a 	b	30fa50 <loc_FF861F50>

0030f8a4 <loc_FF861DB4>:
  30f8a4:	ea00006c 	b	30fa5c <loc_FF861F5C>

0030f8a8 <loc_FF861DB8>:
  30f8a8:	ea00006d 	b	30fa64 <loc_FF861F64>

0030f8ac <loc_FF861DBC>:
  30f8ac:	ea00006e 	b	30fa6c <loc_FF861F6C>

0030f8b0 <loc_FF861DC0>:
  30f8b0:	ea00006f 	b	30fa74 <loc_FF861F74>

0030f8b4 <loc_FF861DC4>:
  30f8b4:	ea000070 	b	30fa7c <loc_FF861F7C>

0030f8b8 <loc_FF861DC8>:
  30f8b8:	ea000072 	b	30fa88 <loc_FF861F88>

0030f8bc <loc_FF861DCC>:
  30f8bc:	ea00007a 	b	30faac <loc_FF861FAC>

0030f8c0 <loc_FF861DD0>:
  30f8c0:	ebfffd1c 	bl	30ed38 <sub_FF8625F4>
  30f8c4:	eb004f6f 	bl	323688 <shooting_expo_param_override>
  30f8c8:	ebfffd12 	bl	30ed18 <sub_FF85FDFC>
  30f8cc:	e3a00000 	mov	r0, #0
  30f8d0:	e5840024 	str	r0, [r4, #36]	; 0x24
  30f8d4:	e5940024 	ldr	r0, [r4, #36]	; 0x24
  30f8d8:	e3500000 	cmp	r0, #0
  30f8dc:	0a000072 	beq	30faac <loc_FF861FAC>
  30f8e0:	ebfffd0e 	bl	30ed20 <sub_FF861518>
  30f8e4:	e1a05000 	mov	r5, r0
  30f8e8:	e5940024 	ldr	r0, [r4, #36]	; 0x24
  30f8ec:	e3500000 	cmp	r0, #0
  30f8f0:	0a000007 	beq	30f914 <loc_FF861E18>
  30f8f4:	e3a0000c 	mov	r0, #12
  30f8f8:	ebfffd1f 	bl	30ed7c <sub_FF865A7C>
  30f8fc:	e3100001 	tst	r0, #1
  30f900:	15869004 	strne	r9, [r6, #4]
  30f904:	15950008 	ldrne	r0, [r5, #8]
  30f908:	13800101 	orrne	r0, r0, #1073741824	; 0x40000000
  30f90c:	15850008 	strne	r0, [r5, #8]
  30f910:	1a000065 	bne	30faac <loc_FF861FAC>

0030f914 <loc_FF861E18>:
  30f914:	e1a00005 	mov	r0, r5
  30f918:	ebfffd01 	bl	30ed24 <sub_FF8617C4>
  30f91c:	e1a00005 	mov	r0, r5
  30f920:	eb0000ab 	bl	30fbd4 <sub_FF935BCC_my>
  30f924:	ebffff83 	bl	30f738 <capt_seq_hook_raw_here>
  30f928:	e3100001 	tst	r0, #1
  30f92c:	15869004 	strne	r9, [r6, #4]
  30f930:	ea00005d 	b	30faac <loc_FF861FAC>

0030f934 <loc_FF861E34>:
  30f934:	eb000068 	bl	30fadc <sub_FF8620C4_my>
  30f938:	ea000003 	b	30f94c <loc_FF861E4C>

0030f93c <loc_FF861E3C>:
  30f93c:	e3a00001 	mov	r0, #1
  30f940:	ebfffcff 	bl	30ed44 <sub_FF86280C>
  30f944:	ea000058 	b	30faac <loc_FF861FAC>

0030f948 <loc_FF861E48>:
  30f948:	ebfffcf6 	bl	30ed28 <sub_FF862258>

0030f94c <loc_FF861E4C>:
  30f94c:	e5847024 	str	r7, [r4, #36]	; 0x24
  30f950:	ea000055 	b	30faac <loc_FF861FAC>

0030f954 <loc_FF861E54>:
  30f954:	ebfffcf4 	bl	30ed2c <sub_FF8625D4>
  30f958:	eafffffb 	b	30f94c <loc_FF861E4C>

0030f95c <loc_FF861E5C>:
  30f95c:	ebfffcf3 	bl	30ed30 <sub_FF8625DC>
  30f960:	ea000051 	b	30faac <loc_FF861FAC>

0030f964 <loc_FF861E64>:
  30f964:	ebfffcf4 	bl	30ed3c <sub_FF86272C>
  30f968:	ea000016 	b	30f9c8 <loc_FF861EC8>

0030f96c <loc_FF861E6C>:
  30f96c:	e590500c 	ldr	r5, [r0, #12]
  30f970:	ebfffcef 	bl	30ed34 <sub_FF8625E4>
  30f974:	e1a00005 	mov	r0, r5
  30f978:	ebfffd48 	bl	30eea0 <sub_FF934B7C>
  30f97c:	e3100001 	tst	r0, #1
  30f980:	e1a08000 	mov	r8, r0
  30f984:	1a000008 	bne	30f9ac <loc_FF861EAC>
  30f988:	ebfffd02 	bl	30ed98 <sub_FF871938>
  30f98c:	e5850018 	str	r0, [r5, #24]
  30f990:	e1a00005 	mov	r0, r5
  30f994:	ebfffd4e 	bl	30eed4 <sub_FF935A88>
  30f998:	e1a00005 	mov	r0, r5
  30f99c:	ebfffd4f 	bl	30eee0 <sub_FF935E94>
  30f9a0:	e1a08000 	mov	r8, r0
  30f9a4:	e5950018 	ldr	r0, [r5, #24]
  30f9a8:	ebfffcfb 	bl	30ed9c <sub_FF871B4C>

0030f9ac <loc_FF861EAC>:
  30f9ac:	ebfffcde 	bl	30ed2c <sub_FF8625D4>
  30f9b0:	e1a02005 	mov	r2, r5
  30f9b4:	e3a01009 	mov	r1, #9
  30f9b8:	e1a00008 	mov	r0, r8
  30f9bc:	ebfffcd6 	bl	30ed1c <sub_FF860288>
  30f9c0:	ea000039 	b	30faac <loc_FF861FAC>

0030f9c4 <loc_FF861EC4>:
  30f9c4:	ebfffcdd 	bl	30ed40 <sub_FF86278C>

0030f9c8 <loc_FF861EC8>:
  30f9c8:	ebfffcd2 	bl	30ed18 <sub_FF85FDFC>
  30f9cc:	ea000036 	b	30faac <loc_FF861FAC>

0030f9d0 <loc_FF861ED0>:
  30f9d0:	e5940054 	ldr	r0, [r4, #84]	; 0x54
  30f9d4:	ebfffcde 	bl	30ed54 <sub_FF862BA0>
  30f9d8:	ea000033 	b	30faac <loc_FF861FAC>

0030f9dc <loc_FF861EDC>:
  30f9dc:	ebfffcdd 	bl	30ed58 <sub_FF862E50>
  30f9e0:	ea000031 	b	30faac <loc_FF861FAC>

0030f9e4 <loc_FF861EE4>:
  30f9e4:	ebfffcdc 	bl	30ed5c <sub_FF862EE0>
  30f9e8:	ea00002f 	b	30faac <loc_FF861FAC>

0030f9ec <loc_FF861EEC>:
  30f9ec:	ebfffcce 	bl	30ed2c <sub_FF8625D4>
  30f9f0:	ea00002d 	b	30faac <loc_FF861FAC>

0030f9f4 <loc_FF861EF4>:
  30f9f4:	ebfffd2a 	bl	30eea4 <sub_FF934D98>
  30f9f8:	ea00002b 	b	30faac <loc_FF861FAC>

0030f9fc <loc_FF861EFC>:
  30f9fc:	ebfffd29 	bl	30eea8 <sub_FF934F80>
  30fa00:	ea000029 	b	30faac <loc_FF861FAC>

0030fa04 <loc_FF861F04>:
  30fa04:	ebfffd28 	bl	30eeac <sub_FF935010>
  30fa08:	ea000027 	b	30faac <loc_FF861FAC>

0030fa0c <loc_FF861F0C>:
  30fa0c:	ebfffd27 	bl	30eeb0 <sub_FF9350C4>
  30fa10:	ea000025 	b	30faac <loc_FF861FAC>

0030fa14 <loc_FF861F14>:
  30fa14:	ebfffd28 	bl	30eebc <sub_FF9352C4>
  30fa18:	ea000023 	b	30faac <loc_FF861FAC>

0030fa1c <loc_FF861F1C>:
  30fa1c:	ebfffd27 	bl	30eec0 <sub_FF93531C>
  30fa20:	ea000021 	b	30faac <loc_FF861FAC>

0030fa24 <loc_FF861F24>:
  30fa24:	e3a00000 	mov	r0, #0
  30fa28:	ebfffd25 	bl	30eec4 <sub_FF9353A4>
  30fa2c:	ea00001e 	b	30faac <loc_FF861FAC>

0030fa30 <loc_FF861F30>:
  30fa30:	ebfffd24 	bl	30eec8 <sub_FF9354DC>
  30fa34:	ea00001c 	b	30faac <loc_FF861FAC>

0030fa38 <loc_FF861F38>:
  30fa38:	ebfffd23 	bl	30eecc <sub_FF93556C>
  30fa3c:	ea00001a 	b	30faac <loc_FF861FAC>

0030fa40 <loc_FF861F40>:
  30fa40:	ebfffd22 	bl	30eed0 <sub_FF93562C>
  30fa44:	ea000018 	b	30faac <loc_FF861FAC>

0030fa48 <loc_FF861F48>:
  30fa48:	ebfffcbf 	bl	30ed4c <sub_FF86298C>
  30fa4c:	ea000016 	b	30faac <loc_FF861FAC>

0030fa50 <loc_FF861F50>:
  30fa50:	ebfffcbe 	bl	30ed50 <sub_FF862A2C>
  30fa54:	ebfffc8a 	bl	30ec84 <sub_FF824944>
  30fa58:	ea000013 	b	30faac <loc_FF861FAC>

0030fa5c <loc_FF861F5C>:
  30fa5c:	ebfffd14 	bl	30eeb4 <sub_FF935180>
  30fa60:	ea000011 	b	30faac <loc_FF861FAC>

0030fa64 <loc_FF861F64>:
  30fa64:	ebfffd13 	bl	30eeb8 <sub_FF9351EC>
  30fa68:	ea00000f 	b	30faac <loc_FF861FAC>

0030fa6c <loc_FF861F6C>:
  30fa6c:	ebfffcbb 	bl	30ed60 <sub_FF864438>
  30fa70:	ea00000d 	b	30faac <loc_FF861FAC>

0030fa74 <loc_FF861F74>:
  30fa74:	ebfffcba 	bl	30ed64 <sub_FF8644A0>
  30fa78:	ea00000b 	b	30faac <loc_FF861FAC>

0030fa7c <loc_FF861F7C>:
  30fa7c:	ebfffcbb 	bl	30ed70 <sub_FF8644FC>
  30fa80:	ebfffcb8 	bl	30ed68 <sub_FF8644BC>
  30fa84:	ea000008 	b	30faac <loc_FF861FAC>

0030fa88 <loc_FF861F88>:
  30fa88:	e3a00001 	mov	r0, #1
  30fa8c:	ebfffd15 	bl	30eee8 <sub_FF9366B4>
  30fa90:	e1d408bc 	ldrh	r0, [r4, #140]	; 0x8c
  30fa94:	e3500003 	cmp	r0, #3
  30fa98:	1bfffcb6 	blne	30ed78 <sub_FF8646F8>
  30fa9c:	ea000002 	b	30faac <loc_FF861FAC>

0030faa0 <loc_FF861FA0>:
  30faa0:	e59f1908 	ldr	r1, [pc, #2312]	; 3103b0 <sub_FF893F18_my+0x78>
  30faa4:	e59f0900 	ldr	r0, [pc, #2304]	; 3103ac <sub_FF893F18_my+0x74>
  30faa8:	ebfffc6a 	bl	30ec58 <sub_FF81B1CC>

0030faac <loc_FF861FAC>:
  30faac:	e59d0000 	ldr	r0, [sp]
  30fab0:	e5901004 	ldr	r1, [r0, #4]
  30fab4:	e5960008 	ldr	r0, [r6, #8]
  30fab8:	ebfffcb1 	bl	30ed84 <sub_FF8694D4>
  30fabc:	e59d5000 	ldr	r5, [sp]
  30fac0:	e5950008 	ldr	r0, [r5, #8]
  30fac4:	e3500000 	cmp	r0, #0
  30fac8:	059f18e4 	ldreq	r1, [pc, #2276]	; 3103b4 <sub_FF893F18_my+0x7c>
  30facc:	059f08d8 	ldreq	r0, [pc, #2264]	; 3103ac <sub_FF893F18_my+0x74>
  30fad0:	0bfffc60 	bleq	30ec58 <sub_FF81B1CC>
  30fad4:	e5857008 	str	r7, [r5, #8]
  30fad8:	eaffff48 	b	30f800 <loc_FF861D10>

0030fadc <sub_FF8620C4_my>:
  30fadc:	e92d4070 	push	{r4, r5, r6, lr}
  30fae0:	e590400c 	ldr	r4, [r0, #12]
  30fae4:	e59f68b8 	ldr	r6, [pc, #2232]	; 3103a4 <sub_FF893F18_my+0x6c>
  30fae8:	e5940008 	ldr	r0, [r4, #8]
  30faec:	e3a05000 	mov	r5, #0
  30faf0:	e3800001 	orr	r0, r0, #1
  30faf4:	e5840008 	str	r0, [r4, #8]
  30faf8:	e5960024 	ldr	r0, [r6, #36]	; 0x24
  30fafc:	e3500000 	cmp	r0, #0
  30fb00:	03a00002 	moveq	r0, #2
  30fb04:	0bfffc7d 	bleq	30ed00 <sub_FF85BF28>
  30fb08:	ebfffc89 	bl	30ed34 <sub_FF8625E4>
  30fb0c:	e5960024 	ldr	r0, [r6, #36]	; 0x24
  30fb10:	e3500000 	cmp	r0, #0
  30fb14:	1a00001d 	bne	30fb90 <loc_FF862174>
  30fb18:	e3a00000 	mov	r0, #0
  30fb1c:	ebfffcf1 	bl	30eee8 <sub_FF9366B4>
  30fb20:	e1a00004 	mov	r0, r4
  30fb24:	ebfffc87 	bl	30ed48 <sub_FF862934>
  30fb28:	e1a00004 	mov	r0, r4
  30fb2c:	ebfffcd8 	bl	30ee94 <sub_FF9347C4>
  30fb30:	e3500000 	cmp	r0, #0
  30fb34:	0a000008 	beq	30fb5c <loc_FF862144>
  30fb38:	ebfffceb 	bl	30eeec <sub_FF9366F4>
  30fb3c:	e1a00004 	mov	r0, r4
  30fb40:	ebfffcd5 	bl	30ee9c <sub_FF9348A8>
  30fb44:	e3100001 	tst	r0, #1
  30fb48:	11a02004 	movne	r2, r4
  30fb4c:	18bd4070 	popne	{r4, r5, r6, lr}
  30fb50:	13a01001 	movne	r1, #1
  30fb54:	1afffc70 	bne	30ed1c <sub_FF860288>
  30fb58:	ea000002 	b	30fb68 <loc_FF862150>

0030fb5c <loc_FF862144>:
  30fb5c:	e1a00004 	mov	r0, r4
  30fb60:	ebfffccc 	bl	30ee98 <sub_FF934844>
  30fb64:	ebfffce0 	bl	30eeec <sub_FF9366F4>

0030fb68 <loc_FF862150>:
  30fb68:	e1a00004 	mov	r0, r4
  30fb6c:	ebfffc6c 	bl	30ed24 <sub_FF8617C4>
  30fb70:	e1a00004 	mov	r0, r4
  30fb74:	ebfffcd6 	bl	30eed4 <sub_FF935A88>
  30fb78:	ebfffcd9 	bl	30eee4 <sub_FF936544>
  30fb7c:	e1a00004 	mov	r0, r4
  30fb80:	eb000013 	bl	30fbd4 <sub_FF935BCC_my>
  30fb84:	e1a05000 	mov	r5, r0
  30fb88:	ebfffeea 	bl	30f738 <capt_seq_hook_raw_here>
  30fb8c:	ea000003 	b	30fba0 <loc_FF862184>

0030fb90 <loc_FF862174>:
  30fb90:	e59f0808 	ldr	r0, [pc, #2056]	; 3103a0 <sub_FF893F18_my+0x68>
  30fb94:	e5900004 	ldr	r0, [r0, #4]
  30fb98:	e3500000 	cmp	r0, #0
  30fb9c:	13a0501d 	movne	r5, #29

0030fba0 <loc_FF862184>:
  30fba0:	ebfffc6f 	bl	30ed64 <sub_FF8644A0>
  30fba4:	ebfffc70 	bl	30ed6c <sub_FF8644E8>
  30fba8:	ebfffc71 	bl	30ed74 <sub_FF864528>
  30fbac:	e1a02004 	mov	r2, r4
  30fbb0:	e3a01001 	mov	r1, #1
  30fbb4:	e1a00005 	mov	r0, r5
  30fbb8:	ebfffc57 	bl	30ed1c <sub_FF860288>
  30fbbc:	ebfffcc6 	bl	30eedc <sub_FF935E24>
  30fbc0:	e3500000 	cmp	r0, #0
  30fbc4:	15940008 	ldrne	r0, [r4, #8]
  30fbc8:	13800a02 	orrne	r0, r0, #8192	; 0x2000
  30fbcc:	15840008 	strne	r0, [r4, #8]
  30fbd0:	e8bd8070 	pop	{r4, r5, r6, pc}

0030fbd4 <sub_FF935BCC_my>:
  30fbd4:	e92d40fe 	push	{r1, r2, r3, r4, r5, r6, r7, lr}
  30fbd8:	e1a04000 	mov	r4, r0
  30fbdc:	ebfffcc3 	bl	30eef0 <sub_FF936818>
  30fbe0:	e3e01000 	mvn	r1, #0
  30fbe4:	ebfffc67 	bl	30ed88 <sub_FF869508>
  30fbe8:	e3a02004 	mov	r2, #4
  30fbec:	e28d1004 	add	r1, sp, #4
  30fbf0:	e3a0008a 	mov	r0, #138	; 0x8a
  30fbf4:	ebfffc66 	bl	30ed94 <sub_FF8717A8>
  30fbf8:	e3100001 	tst	r0, #1
  30fbfc:	159f17b4 	ldrne	r1, [pc, #1972]	; 3103b8 <sub_FF893F18_my+0x80>
  30fc00:	159f07b4 	ldrne	r0, [pc, #1972]	; 3103bc <sub_FF893F18_my+0x84>
  30fc04:	1bfffc13 	blne	30ec58 <sub_FF81B1CC>
  30fc08:	e59f77b0 	ldr	r7, [pc, #1968]	; 3103c0 <sub_FF893F18_my+0x88>
  30fc0c:	e59f6790 	ldr	r6, [pc, #1936]	; 3103a4 <sub_FF893F18_my+0x6c>
  30fc10:	e1d710fe 	ldrsh	r1, [r7, #14]
  30fc14:	e5960088 	ldr	r0, [r6, #136]	; 0x88
  30fc18:	ebfffc92 	bl	30ee68 <sub_FF8F8F48>
  30fc1c:	ebfffc2c 	bl	30ecd4 <sub_FF848C84>
  30fc20:	e59f379c 	ldr	r3, [pc, #1948]	; 3103c4 <sub_FF893F18_my+0x8c>
  30fc24:	e1c409b4 	strh	r0, [r4, #148]	; 0x94
  30fc28:	e58d3000 	str	r3, [sp]
  30fc2c:	e1a01000 	mov	r1, r0
  30fc30:	e1d605bc 	ldrh	r0, [r6, #92]	; 0x5c
  30fc34:	e1d720fc 	ldrsh	r2, [r7, #12]
  30fc38:	e2433004 	sub	r3, r3, #4
  30fc3c:	ebfffcac 	bl	30eef4 <sub_FF936E10>
  30fc40:	ebfffec9 	bl	30f76c <wait_until_remote_button_is_released>
  30fc44:	ebfffed6 	bl	30f7a4 <capt_seq_hook_set_nr>
  30fc48:	eafffca2 	b	30eed8 <sub_FF935C38>

0030fc4c <exp_drv_task>:
  30fc4c:	e92d41f0 	push	{r4, r5, r6, r7, r8, lr}
  30fc50:	e24dd020 	sub	sp, sp, #32
  30fc54:	e59f876c 	ldr	r8, [pc, #1900]	; 3103c8 <sub_FF893F18_my+0x90>
  30fc58:	e59f776c 	ldr	r7, [pc, #1900]	; 3103cc <sub_FF893F18_my+0x94>
  30fc5c:	e59f576c 	ldr	r5, [pc, #1900]	; 3103d0 <sub_FF893F18_my+0x98>
  30fc60:	e3a00000 	mov	r0, #0
  30fc64:	e28d6010 	add	r6, sp, #16
  30fc68:	e58d000c 	str	r0, [sp, #12]

0030fc6c <loc_FF8A4628>:
  30fc6c:	e5970020 	ldr	r0, [r7, #32]
  30fc70:	e3a02000 	mov	r2, #0
  30fc74:	e28d101c 	add	r1, sp, #28
  30fc78:	ebfffc04 	bl	30ec90 <sub_FF827098>
  30fc7c:	e59d000c 	ldr	r0, [sp, #12]
  30fc80:	e3500001 	cmp	r0, #1
  30fc84:	1a00000a 	bne	30fcb4 <loc_FF8A4670>
  30fc88:	e59d001c 	ldr	r0, [sp, #28]
  30fc8c:	e5900000 	ldr	r0, [r0]
  30fc90:	e3500013 	cmp	r0, #19
  30fc94:	13500014 	cmpne	r0, #20
  30fc98:	13500015 	cmpne	r0, #21
  30fc9c:	0a00004b 	beq	30fdd0 <loc_FF8A478C>
  30fca0:	e3500027 	cmp	r0, #39	; 0x27
  30fca4:	0a00003f 	beq	30fda8 <loc_FF8A4764>
  30fca8:	e28d100c 	add	r1, sp, #12
  30fcac:	e3a00000 	mov	r0, #0
  30fcb0:	ebfffc5f 	bl	30ee34 <sub_FF8A45B8>

0030fcb4 <loc_FF8A4670>:
  30fcb4:	e59d001c 	ldr	r0, [sp, #28]
  30fcb8:	e5901000 	ldr	r1, [r0]
  30fcbc:	e351002c 	cmp	r1, #44	; 0x2c
  30fcc0:	1a000007 	bne	30fce4 <loc_FF8A46A0>
  30fcc4:	e59d001c 	ldr	r0, [sp, #28]
  30fcc8:	ebfffc5a 	bl	30ee38 <sub_FF8A5878>
  30fccc:	e597001c 	ldr	r0, [r7, #28]
  30fcd0:	e3a01001 	mov	r1, #1
  30fcd4:	ebfffc2a 	bl	30ed84 <sub_FF8694D4>
  30fcd8:	ebfffbdd 	bl	30ec54 <sub_FF81B184>
  30fcdc:	e28dd020 	add	sp, sp, #32
  30fce0:	e8bd81f0 	pop	{r4, r5, r6, r7, r8, pc}

0030fce4 <loc_FF8A46A0>:
  30fce4:	e351002b 	cmp	r1, #43	; 0x2b
  30fce8:	1a000004 	bne	30fd00 <loc_FF8A46BC>
  30fcec:	e5b02088 	ldr	r2, [r0, #136]!	; 0x88
  30fcf0:	e5901004 	ldr	r1, [r0, #4]
  30fcf4:	e1a00001 	mov	r0, r1
  30fcf8:	e12fff32 	blx	r2
  30fcfc:	ea00013b 	b	3101f0 <loc_FF8A4BF8>

0030fd00 <loc_FF8A46BC>:
  30fd00:	e3510025 	cmp	r1, #37	; 0x25
  30fd04:	1a000011 	bne	30fd50 <loc_FF8A470C>
  30fd08:	e597001c 	ldr	r0, [r7, #28]
  30fd0c:	e3a01080 	mov	r1, #128	; 0x80
  30fd10:	ebfffc1c 	bl	30ed88 <sub_FF869508>
  30fd14:	e59f06b8 	ldr	r0, [pc, #1720]	; 3103d4 <sub_FF893F18_my+0x9c>
  30fd18:	e3a01080 	mov	r1, #128	; 0x80
  30fd1c:	ebfffc53 	bl	30ee70 <sub_FF927F7C>
  30fd20:	e597001c 	ldr	r0, [r7, #28]
  30fd24:	e1a02008 	mov	r2, r8
  30fd28:	e3a01080 	mov	r1, #128	; 0x80
  30fd2c:	ebfffc13 	bl	30ed80 <sub_FF869414>
  30fd30:	e3100001 	tst	r0, #1
  30fd34:	159f169c 	ldrne	r1, [pc, #1692]	; 3103d8 <sub_FF893F18_my+0xa0>
  30fd38:	1a000015 	bne	30fd94 <loc_FF8A4750>

0030fd3c <loc_FF8A46F8>:
  30fd3c:	e59d101c 	ldr	r1, [sp, #28]
  30fd40:	e591008c 	ldr	r0, [r1, #140]	; 0x8c
  30fd44:	e5911088 	ldr	r1, [r1, #136]	; 0x88
  30fd48:	e12fff31 	blx	r1
  30fd4c:	ea000127 	b	3101f0 <loc_FF8A4BF8>

0030fd50 <loc_FF8A470C>:
  30fd50:	e3510026 	cmp	r1, #38	; 0x26
  30fd54:	1a000011 	bne	30fda0 <loc_FF8A475C>
  30fd58:	e28d100c 	add	r1, sp, #12
  30fd5c:	ebfffc34 	bl	30ee34 <sub_FF8A45B8>
  30fd60:	e597001c 	ldr	r0, [r7, #28]
  30fd64:	e3a01c01 	mov	r1, #256	; 0x100
  30fd68:	ebfffc06 	bl	30ed88 <sub_FF869508>
  30fd6c:	e59f0668 	ldr	r0, [pc, #1640]	; 3103dc <sub_FF893F18_my+0xa4>
  30fd70:	e3a01c01 	mov	r1, #256	; 0x100
  30fd74:	ebfffc3f 	bl	30ee78 <sub_FF928204>
  30fd78:	e597001c 	ldr	r0, [r7, #28]
  30fd7c:	e1a02008 	mov	r2, r8
  30fd80:	e3a01c01 	mov	r1, #256	; 0x100
  30fd84:	ebfffbfd 	bl	30ed80 <sub_FF869414>
  30fd88:	e3100001 	tst	r0, #1
  30fd8c:	0affffea 	beq	30fd3c <loc_FF8A46F8>
  30fd90:	e3a01d35 	mov	r1, #3392	; 0xd40

0030fd94 <loc_FF8A4750>:
  30fd94:	e59f0644 	ldr	r0, [pc, #1604]	; 3103e0 <sub_FF893F18_my+0xa8>
  30fd98:	ebfffbae 	bl	30ec58 <sub_FF81B1CC>
  30fd9c:	eaffffe6 	b	30fd3c <loc_FF8A46F8>

0030fda0 <loc_FF8A475C>:
  30fda0:	e3510027 	cmp	r1, #39	; 0x27
  30fda4:	1a000003 	bne	30fdb8 <loc_FF8A4774>

0030fda8 <loc_FF8A4764>:
  30fda8:	e59d001c 	ldr	r0, [sp, #28]
  30fdac:	e28d100c 	add	r1, sp, #12
  30fdb0:	ebfffc1f 	bl	30ee34 <sub_FF8A45B8>
  30fdb4:	eaffffe0 	b	30fd3c <loc_FF8A46F8>

0030fdb8 <loc_FF8A4774>:
  30fdb8:	e351002a 	cmp	r1, #42	; 0x2a
  30fdbc:	1a000003 	bne	30fdd0 <loc_FF8A478C>
  30fdc0:	ebfffbfd 	bl	30edbc <sub_FF8941A8>
  30fdc4:	ebfffc00 	bl	30edcc <sub_FF894E34>
  30fdc8:	ebfffbfe 	bl	30edc8 <sub_FF89496C>
  30fdcc:	eaffffda 	b	30fd3c <loc_FF8A46F8>

0030fdd0 <loc_FF8A478C>:
  30fdd0:	e59d001c 	ldr	r0, [sp, #28]
  30fdd4:	e3a04001 	mov	r4, #1
  30fdd8:	e5901000 	ldr	r1, [r0]
  30fddc:	e3510011 	cmp	r1, #17
  30fde0:	13510012 	cmpne	r1, #18
  30fde4:	1a000015 	bne	30fe40 <loc_FF8A47FC>
  30fde8:	e590107c 	ldr	r1, [r0, #124]	; 0x7c
  30fdec:	e0811081 	add	r1, r1, r1, lsl #1
  30fdf0:	e0801101 	add	r1, r0, r1, lsl #2
  30fdf4:	e2411008 	sub	r1, r1, #8
  30fdf8:	e891001c 	ldm	r1, {r2, r3, r4}
  30fdfc:	e886001c 	stm	r6, {r2, r3, r4}
  30fe00:	ebfffc07 	bl	30ee24 <sub_FF8A30D8>
  30fe04:	e59d001c 	ldr	r0, [sp, #28]
  30fe08:	e590107c 	ldr	r1, [r0, #124]	; 0x7c
  30fe0c:	e5903088 	ldr	r3, [r0, #136]	; 0x88
  30fe10:	e590208c 	ldr	r2, [r0, #140]	; 0x8c
  30fe14:	e2800004 	add	r0, r0, #4
  30fe18:	e12fff33 	blx	r3
  30fe1c:	e59d001c 	ldr	r0, [sp, #28]
  30fe20:	ebfffc0a 	bl	30ee50 <sub_FF8A5C4C>
  30fe24:	e59d001c 	ldr	r0, [sp, #28]
  30fe28:	e590107c 	ldr	r1, [r0, #124]	; 0x7c
  30fe2c:	e5903090 	ldr	r3, [r0, #144]	; 0x90
  30fe30:	e5902094 	ldr	r2, [r0, #148]	; 0x94
  30fe34:	e2800004 	add	r0, r0, #4
  30fe38:	e12fff33 	blx	r3
  30fe3c:	ea0000bb 	b	310130 <loc_FF8A4B38>

0030fe40 <loc_FF8A47FC>:
  30fe40:	e3510013 	cmp	r1, #19
  30fe44:	13510014 	cmpne	r1, #20
  30fe48:	13510015 	cmpne	r1, #21
  30fe4c:	1a000028 	bne	30fef4 <loc_FF8A48B0>
  30fe50:	e28d300c 	add	r3, sp, #12
  30fe54:	e1a0200d 	mov	r2, sp
  30fe58:	e28d1010 	add	r1, sp, #16
  30fe5c:	ebfffbf1 	bl	30ee28 <sub_FF8A3320>
  30fe60:	e3500001 	cmp	r0, #1
  30fe64:	e1a04000 	mov	r4, r0
  30fe68:	13540005 	cmpne	r4, #5
  30fe6c:	1a000007 	bne	30fe90 <loc_FF8A484C>
  30fe70:	e59d001c 	ldr	r0, [sp, #28]
  30fe74:	e1a02004 	mov	r2, r4
  30fe78:	e5b0107c 	ldr	r1, [r0, #124]!	; 0x7c
  30fe7c:	e5b0c00c 	ldr	ip, [r0, #12]!
  30fe80:	e5903004 	ldr	r3, [r0, #4]
  30fe84:	e1a0000d 	mov	r0, sp
  30fe88:	e12fff3c 	blx	ip
  30fe8c:	ea00000d 	b	30fec8 <loc_FF8A4884>

0030fe90 <loc_FF8A484C>:
  30fe90:	e59d001c 	ldr	r0, [sp, #28]
  30fe94:	e3540002 	cmp	r4, #2
  30fe98:	e590308c 	ldr	r3, [r0, #140]	; 0x8c
  30fe9c:	13540006 	cmpne	r4, #6
  30fea0:	1a00000d 	bne	30fedc <loc_FF8A4898>
  30fea4:	e590c088 	ldr	ip, [r0, #136]	; 0x88
  30fea8:	e1a0000d 	mov	r0, sp
  30feac:	e1a02004 	mov	r2, r4
  30feb0:	e3a01001 	mov	r1, #1
  30feb4:	e12fff3c 	blx	ip
  30feb8:	e59d001c 	ldr	r0, [sp, #28]
  30febc:	e1a0200d 	mov	r2, sp
  30fec0:	e28d1010 	add	r1, sp, #16
  30fec4:	ebfffbd8 	bl	30ee2c <sub_FF8A42CC>

0030fec8 <loc_FF8A4884>:
  30fec8:	e59d001c 	ldr	r0, [sp, #28]
  30fecc:	e59d200c 	ldr	r2, [sp, #12]
  30fed0:	e1a01004 	mov	r1, r4
  30fed4:	ebfffbd5 	bl	30ee30 <sub_FF8A4558>
  30fed8:	ea000094 	b	310130 <loc_FF8A4B38>

0030fedc <loc_FF8A4898>:
  30fedc:	e590107c 	ldr	r1, [r0, #124]	; 0x7c
  30fee0:	e590c088 	ldr	ip, [r0, #136]	; 0x88
  30fee4:	e2800004 	add	r0, r0, #4
  30fee8:	e1a02004 	mov	r2, r4
  30feec:	e12fff3c 	blx	ip
  30fef0:	ea00008e 	b	310130 <loc_FF8A4B38>

0030fef4 <loc_FF8A48B0>:
  30fef4:	e3510021 	cmp	r1, #33	; 0x21
  30fef8:	13510022 	cmpne	r1, #34	; 0x22
  30fefc:	1a00000f 	bne	30ff40 <loc_FF8A48FC>
  30ff00:	e590107c 	ldr	r1, [r0, #124]	; 0x7c
  30ff04:	e0811081 	add	r1, r1, r1, lsl #1
  30ff08:	e0801101 	add	r1, r0, r1, lsl #2
  30ff0c:	e2411008 	sub	r1, r1, #8
  30ff10:	e891001c 	ldm	r1, {r2, r3, r4}
  30ff14:	e886001c 	stm	r6, {r2, r3, r4}
  30ff18:	ebfffbbb 	bl	30ee0c <sub_FF8A2664>
  30ff1c:	e59d001c 	ldr	r0, [sp, #28]
  30ff20:	e590107c 	ldr	r1, [r0, #124]	; 0x7c
  30ff24:	e5903088 	ldr	r3, [r0, #136]	; 0x88
  30ff28:	e590208c 	ldr	r2, [r0, #140]	; 0x8c
  30ff2c:	e2800004 	add	r0, r0, #4
  30ff30:	e12fff33 	blx	r3
  30ff34:	e59d001c 	ldr	r0, [sp, #28]
  30ff38:	ebfffbb4 	bl	30ee10 <sub_FF8A2954>
  30ff3c:	ea00007b 	b	310130 <loc_FF8A4B38>

0030ff40 <loc_FF8A48FC>:
  30ff40:	e2801004 	add	r1, r0, #4
  30ff44:	e891100c 	ldm	r1, {r2, r3, ip}
  30ff48:	e886100c 	stm	r6, {r2, r3, ip}
  30ff4c:	e5901000 	ldr	r1, [r0]
  30ff50:	e3510024 	cmp	r1, #36	; 0x24
  30ff54:	908ff101 	addls	pc, pc, r1, lsl #2
  30ff58:	ea00006c 	b	310110 <loc_FF8A4B18>

0030ff5c <loc_FF8A4918>:
  30ff5c:	ea000023 	b	30fff0 <loc_FF8A49AC>

0030ff60 <loc_FF8A491C>:
  30ff60:	ea000022 	b	30fff0 <loc_FF8A49AC>

0030ff64 <loc_FF8A4920>:
  30ff64:	ea000023 	b	30fff8 <loc_FF8A4A00>

0030ff68 <loc_FF8A4924>:
  30ff68:	ea000024 	b	310000 <loc_FF8A4A08>

0030ff6c <loc_FF8A4928>:
  30ff6c:	ea000023 	b	310000 <loc_FF8A4A08>

0030ff70 <loc_FF8A492C>:
  30ff70:	ea000022 	b	310000 <loc_FF8A4A08>

0030ff74 <loc_FF8A4930>:
  30ff74:	ea00001d 	b	30fff0 <loc_FF8A49AC>

0030ff78 <loc_FF8A4934>:
  30ff78:	ea00001e 	b	30fff8 <loc_FF8A4A00>

0030ff7c <loc_FF8A4938>:
  30ff7c:	ea00001f 	b	310000 <loc_FF8A4A08>

0030ff80 <loc_FF8A493C>:
  30ff80:	ea00001e 	b	310000 <loc_FF8A4A08>

0030ff84 <loc_FF8A4940>:
  30ff84:	ea000023 	b	310018 <loc_FF8A4A20>

0030ff88 <loc_FF8A4944>:
  30ff88:	ea000022 	b	310018 <loc_FF8A4A20>

0030ff8c <loc_FF8A4948>:
  30ff8c:	ea00005c 	b	310104 <loc_FF8A4B0C>

0030ff90 <loc_FF8A494C>:
  30ff90:	ea00005d 	b	31010c <loc_FF8A4B14>

0030ff94 <loc_FF8A4950>:
  30ff94:	ea00005c 	b	31010c <loc_FF8A4B14>

0030ff98 <loc_FF8A4954>:
  30ff98:	ea00005b 	b	31010c <loc_FF8A4B14>

0030ff9c <loc_FF8A4958>:
  30ff9c:	ea00005a 	b	31010c <loc_FF8A4B14>

0030ffa0 <loc_FF8A495C>:
  30ffa0:	ea00005a 	b	310110 <loc_FF8A4B18>

0030ffa4 <loc_FF8A4960>:
  30ffa4:	ea000059 	b	310110 <loc_FF8A4B18>

0030ffa8 <loc_FF8A4964>:
  30ffa8:	ea000058 	b	310110 <loc_FF8A4B18>

0030ffac <loc_FF8A4968>:
  30ffac:	ea000057 	b	310110 <loc_FF8A4B18>

0030ffb0 <loc_FF8A496C>:
  30ffb0:	ea000056 	b	310110 <loc_FF8A4B18>

0030ffb4 <loc_FF8A4970>:
  30ffb4:	ea000013 	b	310008 <loc_FF8A4A10>

0030ffb8 <loc_FF8A4974>:
  30ffb8:	ea000014 	b	310010 <loc_FF8A4A18>

0030ffbc <loc_FF8A4978>:
  30ffbc:	ea000013 	b	310010 <loc_FF8A4A18>

0030ffc0 <loc_FF8A497C>:
  30ffc0:	ea000017 	b	310024 <loc_FF8A4A2C>

0030ffc4 <loc_FF8A4980>:
  30ffc4:	ea000016 	b	310024 <loc_FF8A4A2C>

0030ffc8 <loc_FF8A4984>:
  30ffc8:	ea000017 	b	31002c <loc_FF8A4A34>

0030ffcc <loc_FF8A4988>:
  30ffcc:	ea000022 	b	31005c <loc_FF8A4A64>

0030ffd0 <loc_FF8A498C>:
  30ffd0:	ea00002d 	b	31008c <loc_FF8A4A94>

0030ffd4 <loc_FF8A4990>:
  30ffd4:	ea000038 	b	3100bc <loc_FF8A4AC4>

0030ffd8 <loc_FF8A4994>:
  30ffd8:	ea000043 	b	3100ec <loc_FF8A4AF4>

0030ffdc <loc_FF8A4998>:
  30ffdc:	ea000042 	b	3100ec <loc_FF8A4AF4>

0030ffe0 <loc_FF8A499C>:
  30ffe0:	ea00004a 	b	310110 <loc_FF8A4B18>

0030ffe4 <loc_FF8A49A0>:
  30ffe4:	ea000049 	b	310110 <loc_FF8A4B18>

0030ffe8 <loc_FF8A49A4>:
  30ffe8:	ea000041 	b	3100f4 <loc_FF8A4AFC>

0030ffec <loc_FF8A49A8>:
  30ffec:	ea000042 	b	3100fc <loc_FF8A4B04>

0030fff0 <loc_FF8A49AC>:
  30fff0:	ebfffb7e 	bl	30edf0 <sub_FF8A1544>
  30fff4:	ea000045 	b	310110 <loc_FF8A4B18>

0030fff8 <loc_FF8A4A00>:
  30fff8:	ebfffb7d 	bl	30edf4 <sub_FF8A17CC>
  30fffc:	ea000043 	b	310110 <loc_FF8A4B18>

00310000 <loc_FF8A4A08>:
  310000:	ebfffb7c 	bl	30edf8 <sub_FF8A19D0>
  310004:	ea000041 	b	310110 <loc_FF8A4B18>

00310008 <loc_FF8A4A10>:
  310008:	ebfffb7b 	bl	30edfc <sub_FF8A1C38>
  31000c:	ea00003f 	b	310110 <loc_FF8A4B18>

00310010 <loc_FF8A4A18>:
  310010:	ebfffb7a 	bl	30ee00 <sub_FF8A1E2C>
  310014:	ea00003d 	b	310110 <loc_FF8A4B18>

00310018 <loc_FF8A4A20>:
  310018:	eb000077 	bl	3101fc <sub_FF8A2094_my>
  31001c:	e3a04000 	mov	r4, #0
  310020:	ea00003a 	b	310110 <loc_FF8A4B18>

00310024 <loc_FF8A4A2C>:
  310024:	ebfffb76 	bl	30ee04 <sub_FF8A21D0>
  310028:	ea000038 	b	310110 <loc_FF8A4B18>

0031002c <loc_FF8A4A34>:
  31002c:	e1d010b4 	ldrh	r1, [r0, #4]
  310030:	e1cd11b0 	strh	r1, [sp, #16]
  310034:	e1d510b2 	ldrh	r1, [r5, #2]
  310038:	e1cd11b2 	strh	r1, [sp, #18]
  31003c:	e1d510b4 	ldrh	r1, [r5, #4]
  310040:	e1cd11b4 	strh	r1, [sp, #20]
  310044:	e1d510b6 	ldrh	r1, [r5, #6]
  310048:	e1cd11b6 	strh	r1, [sp, #22]
  31004c:	e1d010bc 	ldrh	r1, [r0, #12]
  310050:	e1cd11b8 	strh	r1, [sp, #24]
  310054:	ebfffb79 	bl	30ee40 <sub_FF8A58EC>
  310058:	ea00002c 	b	310110 <loc_FF8A4B18>

0031005c <loc_FF8A4A64>:
  31005c:	e1d010b4 	ldrh	r1, [r0, #4]
  310060:	e1cd11b0 	strh	r1, [sp, #16]
  310064:	e1d510b2 	ldrh	r1, [r5, #2]
  310068:	e1cd11b2 	strh	r1, [sp, #18]
  31006c:	e1d510b4 	ldrh	r1, [r5, #4]
  310070:	e1cd11b4 	strh	r1, [sp, #20]
  310074:	e1d510b6 	ldrh	r1, [r5, #6]
  310078:	e1cd11b6 	strh	r1, [sp, #22]
  31007c:	e1d510b8 	ldrh	r1, [r5, #8]
  310080:	e1cd11b8 	strh	r1, [sp, #24]
  310084:	ebfffb6e 	bl	30ee44 <sub_FF8A5A68>
  310088:	ea000020 	b	310110 <loc_FF8A4B18>

0031008c <loc_FF8A4A94>:
  31008c:	e1d510b0 	ldrh	r1, [r5]
  310090:	e1cd11b0 	strh	r1, [sp, #16]
  310094:	e1d010b6 	ldrh	r1, [r0, #6]
  310098:	e1cd11b2 	strh	r1, [sp, #18]
  31009c:	e1d510b4 	ldrh	r1, [r5, #4]
  3100a0:	e1cd11b4 	strh	r1, [sp, #20]
  3100a4:	e1d510b6 	ldrh	r1, [r5, #6]
  3100a8:	e1cd11b6 	strh	r1, [sp, #22]
  3100ac:	e1d510b8 	ldrh	r1, [r5, #8]
  3100b0:	e1cd11b8 	strh	r1, [sp, #24]
  3100b4:	ebfffb63 	bl	30ee48 <sub_FF8A5B14>
  3100b8:	ea000014 	b	310110 <loc_FF8A4B18>

003100bc <loc_FF8A4AC4>:
  3100bc:	e1d510b0 	ldrh	r1, [r5]
  3100c0:	e1cd11b0 	strh	r1, [sp, #16]
  3100c4:	e1d510b2 	ldrh	r1, [r5, #2]
  3100c8:	e1cd11b2 	strh	r1, [sp, #18]
  3100cc:	e1d510b4 	ldrh	r1, [r5, #4]
  3100d0:	e1cd11b4 	strh	r1, [sp, #20]
  3100d4:	e1d510b6 	ldrh	r1, [r5, #6]
  3100d8:	e1cd11b6 	strh	r1, [sp, #22]
  3100dc:	e1d010bc 	ldrh	r1, [r0, #12]
  3100e0:	e1cd11b8 	strh	r1, [sp, #24]
  3100e4:	ebfffb58 	bl	30ee4c <sub_FF8A5BB4>
  3100e8:	ea000008 	b	310110 <loc_FF8A4B18>

003100ec <loc_FF8A4AF4>:
  3100ec:	ebfffb45 	bl	30ee08 <sub_FF8A2444>
  3100f0:	ea000006 	b	310110 <loc_FF8A4B18>

003100f4 <loc_FF8A4AFC>:
  3100f4:	ebfffb46 	bl	30ee14 <sub_FF8A2A58>
  3100f8:	ea000004 	b	310110 <loc_FF8A4B18>

003100fc <loc_FF8A4B04>:
  3100fc:	ebfffb45 	bl	30ee18 <sub_FF8A2C90>
  310100:	ea000002 	b	310110 <loc_FF8A4B18>

00310104 <loc_FF8A4B0C>:
  310104:	ebfffb44 	bl	30ee1c <sub_FF8A2E08>
  310108:	ea000000 	b	310110 <loc_FF8A4B18>

0031010c <loc_FF8A4B14>:
  31010c:	ebfffb43 	bl	30ee20 <sub_FF8A2FA0>

00310110 <loc_FF8A4B18>:
  310110:	e59d001c 	ldr	r0, [sp, #28]
  310114:	e590107c 	ldr	r1, [r0, #124]	; 0x7c
  310118:	e5903088 	ldr	r3, [r0, #136]	; 0x88
  31011c:	e590208c 	ldr	r2, [r0, #140]	; 0x8c
  310120:	e2800004 	add	r0, r0, #4
  310124:	e12fff33 	blx	r3
  310128:	e3540001 	cmp	r4, #1
  31012c:	1a000011 	bne	310178 <loc_FF8A4B80>

00310130 <loc_FF8A4B38>:
  310130:	e59d001c 	ldr	r0, [sp, #28]
  310134:	e3a0200c 	mov	r2, #12
  310138:	e590107c 	ldr	r1, [r0, #124]	; 0x7c
  31013c:	e0811081 	add	r1, r1, r1, lsl #1
  310140:	e0800101 	add	r0, r0, r1, lsl #2
  310144:	e2404008 	sub	r4, r0, #8
  310148:	e59f0280 	ldr	r0, [pc, #640]	; 3103d0 <sub_FF893F18_my+0x98>
  31014c:	e28d1010 	add	r1, sp, #16
  310150:	ebfffb69 	bl	30eefc <sub_FFAD1878>
  310154:	e59f0288 	ldr	r0, [pc, #648]	; 3103e4 <sub_FF893F18_my+0xac>
  310158:	e3a0200c 	mov	r2, #12
  31015c:	e28d1010 	add	r1, sp, #16
  310160:	ebfffb65 	bl	30eefc <sub_FFAD1878>
  310164:	e59f027c 	ldr	r0, [pc, #636]	; 3103e8 <sub_FF893F18_my+0xb0>
  310168:	e3a0200c 	mov	r2, #12
  31016c:	e1a01004 	mov	r1, r4
  310170:	ebfffb61 	bl	30eefc <sub_FFAD1878>
  310174:	ea00001d 	b	3101f0 <loc_FF8A4BF8>

00310178 <loc_FF8A4B80>:
  310178:	e59d001c 	ldr	r0, [sp, #28]
  31017c:	e5900000 	ldr	r0, [r0]
  310180:	e350000b 	cmp	r0, #11
  310184:	1a00000d 	bne	3101c0 <loc_FF8A4BC8>
  310188:	e3a03000 	mov	r3, #0
  31018c:	e58d3000 	str	r3, [sp]
  310190:	e3a03001 	mov	r3, #1
  310194:	e3a02001 	mov	r2, #1
  310198:	e3a01001 	mov	r1, #1
  31019c:	e3a00000 	mov	r0, #0
  3101a0:	ebfffb10 	bl	30ede8 <sub_FF8A134C>
  3101a4:	e3a03000 	mov	r3, #0
  3101a8:	e58d3000 	str	r3, [sp]
  3101ac:	e3a03001 	mov	r3, #1
  3101b0:	e3a02001 	mov	r2, #1
  3101b4:	e3a01001 	mov	r1, #1
  3101b8:	e3a00000 	mov	r0, #0
  3101bc:	ea00000a 	b	3101ec <loc_FF8A4BF4>

003101c0 <loc_FF8A4BC8>:
  3101c0:	e3a03001 	mov	r3, #1
  3101c4:	e3a02001 	mov	r2, #1
  3101c8:	e3a01001 	mov	r1, #1
  3101cc:	e3a00001 	mov	r0, #1
  3101d0:	e58d3000 	str	r3, [sp]
  3101d4:	ebfffb03 	bl	30ede8 <sub_FF8A134C>
  3101d8:	e3a03001 	mov	r3, #1
  3101dc:	e3a02001 	mov	r2, #1
  3101e0:	e3a01001 	mov	r1, #1
  3101e4:	e3a00001 	mov	r0, #1
  3101e8:	e58d3000 	str	r3, [sp]

003101ec <loc_FF8A4BF4>:
  3101ec:	ebfffafe 	bl	30edec <sub_FF8A148C>

003101f0 <loc_FF8A4BF8>:
  3101f0:	e59d001c 	ldr	r0, [sp, #28]
  3101f4:	ebfffb0f 	bl	30ee38 <sub_FF8A5878>
  3101f8:	eafffe9b 	b	30fc6c <loc_FF8A4628>

003101fc <sub_FF8A2094_my>:
  3101fc:	e92d41f0 	push	{r4, r5, r6, r7, r8, lr}
  310200:	e59f71c4 	ldr	r7, [pc, #452]	; 3103cc <sub_FF893F18_my+0x94>
  310204:	e1a04000 	mov	r4, r0
  310208:	e597001c 	ldr	r0, [r7, #28]
  31020c:	e3a0103e 	mov	r1, #62	; 0x3e
  310210:	ebfffadc 	bl	30ed88 <sub_FF869508>
  310214:	e1d400f4 	ldrsh	r0, [r4, #4]
  310218:	e3a02000 	mov	r2, #0
  31021c:	e3a01000 	mov	r1, #0
  310220:	ebfffaeb 	bl	30edd4 <sub_FF8A10DC>
  310224:	e1a06000 	mov	r6, r0
  310228:	e1d400f6 	ldrsh	r0, [r4, #6]
  31022c:	ebfffae9 	bl	30edd8 <sub_FF8A11EC>
  310230:	e1d400f8 	ldrsh	r0, [r4, #8]
  310234:	ebfffae8 	bl	30eddc <sub_FF8A1244>
  310238:	e1d400fa 	ldrsh	r0, [r4, #10]
  31023c:	ebfffae7 	bl	30ede0 <sub_FF8A129C>
  310240:	e1d400fc 	ldrsh	r0, [r4, #12]
  310244:	ebfffae6 	bl	30ede4 <sub_FF8A12F4>
  310248:	e1a05000 	mov	r5, r0
  31024c:	e5940000 	ldr	r0, [r4]
  310250:	e59f8190 	ldr	r8, [pc, #400]	; 3103e8 <sub_FF893F18_my+0xb0>
  310254:	e350000b 	cmp	r0, #11
  310258:	03a06000 	moveq	r6, #0
  31025c:	03a05000 	moveq	r5, #0
  310260:	0a000009 	beq	31028c <loc_FF8A2124>
  310264:	e3560001 	cmp	r6, #1
  310268:	1a000007 	bne	31028c <loc_FF8A2124>
  31026c:	e1d400f4 	ldrsh	r0, [r4, #4]
  310270:	e59f1174 	ldr	r1, [pc, #372]	; 3103ec <sub_FF893F18_my+0xb4>
  310274:	e3a02002 	mov	r2, #2
  310278:	ebfffafd 	bl	30ee74 <sub_FF9280D0>
  31027c:	e1c400b4 	strh	r0, [r4, #4]
  310280:	e3a00000 	mov	r0, #0
  310284:	e5870028 	str	r0, [r7, #40]	; 0x28
  310288:	ea000001 	b	310294 <loc_FF8A212C>

0031028c <loc_FF8A2124>:
  31028c:	e1d800b0 	ldrh	r0, [r8]
  310290:	e1c400b4 	strh	r0, [r4, #4]

00310294 <loc_FF8A212C>:
  310294:	e3550001 	cmp	r5, #1
  310298:	11d800b8 	ldrhne	r0, [r8, #8]
  31029c:	1a000003 	bne	3102b0 <loc_FF8A2148>
  3102a0:	e1d400fc 	ldrsh	r0, [r4, #12]
  3102a4:	e59f1144 	ldr	r1, [pc, #324]	; 3103f0 <sub_FF893F18_my+0xb8>
  3102a8:	e3a02020 	mov	r2, #32
  3102ac:	ebfffae2 	bl	30ee3c <sub_FF8A58A8>

003102b0 <loc_FF8A2148>:
  3102b0:	e1c400bc 	strh	r0, [r4, #12]
  3102b4:	e1d400f6 	ldrsh	r0, [r4, #6]
  3102b8:	eb00001e 	bl	310338 <sub_FF893F18_my>
  3102bc:	e1d400f8 	ldrsh	r0, [r4, #8]
  3102c0:	e3a01001 	mov	r1, #1
  3102c4:	ebfffabd 	bl	30edc0 <sub_FF894664>
  3102c8:	e3a01000 	mov	r1, #0
  3102cc:	e2840008 	add	r0, r4, #8
  3102d0:	ebfffabb 	bl	30edc4 <sub_FF8946EC>
  3102d4:	e1d400fe 	ldrsh	r0, [r4, #14]
  3102d8:	ebfffabc 	bl	30edd0 <sub_FF89CD74>
  3102dc:	e59f40e4 	ldr	r4, [pc, #228]	; 3103c8 <sub_FF893F18_my+0x90>
  3102e0:	e3560001 	cmp	r6, #1
  3102e4:	1a000007 	bne	310308 <loc_FF8A21A0>
  3102e8:	e597001c 	ldr	r0, [r7, #28]
  3102ec:	e1a02004 	mov	r2, r4
  3102f0:	e3a01002 	mov	r1, #2
  3102f4:	ebfffaa1 	bl	30ed80 <sub_FF869414>
  3102f8:	e3100001 	tst	r0, #1
  3102fc:	159f10f0 	ldrne	r1, [pc, #240]	; 3103f4 <sub_FF893F18_my+0xbc>
  310300:	159f00d8 	ldrne	r0, [pc, #216]	; 3103e0 <sub_FF893F18_my+0xa8>
  310304:	1bfffa53 	blne	30ec58 <sub_FF81B1CC>

00310308 <loc_FF8A21A0>:
  310308:	e3550001 	cmp	r5, #1
  31030c:	18bd81f0 	popne	{r4, r5, r6, r7, r8, pc}
  310310:	e597001c 	ldr	r0, [r7, #28]
  310314:	e1a02004 	mov	r2, r4
  310318:	e3a01020 	mov	r1, #32
  31031c:	ebfffa97 	bl	30ed80 <sub_FF869414>
  310320:	e3100001 	tst	r0, #1
  310324:	159f10cc 	ldrne	r1, [pc, #204]	; 3103f8 <sub_FF893F18_my+0xc0>
  310328:	159f00b0 	ldrne	r0, [pc, #176]	; 3103e0 <sub_FF893F18_my+0xa8>
  31032c:	18bd41f0 	popne	{r4, r5, r6, r7, r8, lr}
  310330:	1afffa48 	bne	30ec58 <sub_FF81B1CC>
  310334:	e8bd81f0 	pop	{r4, r5, r6, r7, r8, pc}

00310338 <sub_FF893F18_my>:
  310338:	e92d4070 	push	{r4, r5, r6, lr}
  31033c:	e59f50b8 	ldr	r5, [pc, #184]	; 3103fc <sub_FF893F18_my+0xc4>
  310340:	e1a04000 	mov	r4, r0
  310344:	e5950004 	ldr	r0, [r5, #4]
  310348:	e3500001 	cmp	r0, #1
  31034c:	13a01d05 	movne	r1, #320	; 0x140
  310350:	159f00a8 	ldrne	r0, [pc, #168]	; 310400 <sub_FF893F18_my+0xc8>
  310354:	1bfffa3f 	blne	30ec58 <sub_FF81B1CC>
  310358:	e3740b03 	cmn	r4, #3072	; 0xc00
  31035c:	01d540f2 	ldrsheq	r4, [r5, #2]
  310360:	e3740b03 	cmn	r4, #3072	; 0xc00
  310364:	059f1098 	ldreq	r1, [pc, #152]	; 310404 <sub_FF893F18_my+0xcc>
  310368:	059f0090 	ldreq	r0, [pc, #144]	; 310400 <sub_FF893F18_my+0xc8>
  31036c:	e1c540b2 	strh	r4, [r5, #2]
  310370:	0bfffa38 	bleq	30ec58 <sub_FF81B1CC>
  310374:	e1a00004 	mov	r0, r4
  310378:	eb004b5a 	bl	3230e8 <apex2us>
  31037c:	e1a04000 	mov	r4, r0
  310380:	e1a00004 	mov	r0, r4
  310384:	ebfffab3 	bl	30ee58 <sub_FF8C5194>
  310388:	e3100001 	tst	r0, #1
  31038c:	159f1074 	ldrne	r1, [pc, #116]	; 310408 <sub_FF893F18_my+0xd0>
  310390:	18bd4070 	popne	{r4, r5, r6, lr}
  310394:	159f0064 	ldrne	r0, [pc, #100]	; 310400 <sub_FF893F18_my+0xc8>
  310398:	1afffa2e 	bne	30ec58 <sub_FF81B1CC>
  31039c:	e8bd8070 	pop	{r4, r5, r6, pc}
  3103a0:	000052f0 	.word	0x000052f0
  3103a4:	0001af4c 	.word	0x0001af4c
  3103a8:	00000539 	.word	0x00000539
  3103ac:	ff861840 	.word	0xff861840
  3103b0:	0000065e 	.word	0x0000065e
  3103b4:	0000011d 	.word	0x0000011d
  3103b8:	00000373 	.word	0x00000373
  3103bc:	ff935b98 	.word	0xff935b98
  3103c0:	0001b00c 	.word	0x0001b00c
  3103c4:	0000926c 	.word	0x0000926c
  3103c8:	00000bb8 	.word	0x00000bb8
  3103cc:	000069c8 	.word	0x000069c8
  3103d0:	0001ffc4 	.word	0x0001ffc4
  3103d4:	ff8a1058 	.word	0xff8a1058
  3103d8:	00000d36 	.word	0x00000d36
  3103dc:	ff8a1068 	.word	0xff8a1068
  3103e0:	ff8a1758 	.word	0xff8a1758
  3103e4:	0001ffd0 	.word	0x0001ffd0
  3103e8:	0001ffdc 	.word	0x0001ffdc
  3103ec:	ff8a1048 	.word	0xff8a1048
  3103f0:	ff8a10cc 	.word	0xff8a10cc
  3103f4:	0000054d 	.word	0x0000054d
  3103f8:	00000552 	.word	0x00000552
  3103fc:	000066f8 	.word	0x000066f8
  310400:	ff893d1c 	.word	0xff893d1c
  310404:	00000146 	.word	0x00000146
  310408:	0000014b 	.word	0x0000014b

0031040c <change_video_tables>:
  31040c:	e12fff1e 	bx	lr

00310410 <set_quality>:
  310410:	e59f3034 	ldr	r3, [pc, #52]	; 31044c <set_quality+0x3c>
  310414:	e593252c 	ldr	r2, [r3, #1324]	; 0x52c
  310418:	e3520000 	cmp	r2, #0
  31041c:	012fff1e 	bxeq	lr
  310420:	e92d4010 	push	{r4, lr}
  310424:	e1a04000 	mov	r4, r0
  310428:	e5933530 	ldr	r3, [r3, #1328]	; 0x530
  31042c:	e2433001 	sub	r3, r3, #1
  310430:	e3e01061 	mvn	r1, #97	; 0x61
  310434:	e3a0001d 	mov	r0, #29
  310438:	e0000093 	mul	r0, r3, r0
  31043c:	eb0041a5 	bl	320ad8 <__divsi3>
  310440:	e280000c 	add	r0, r0, #12
  310444:	e5840000 	str	r0, [r4]
  310448:	e8bd8010 	pop	{r4, pc}
  31044c:	0033111c 	.word	0x0033111c

00310450 <spy_cache_invalidate>:
  310450:	e3c0301f 	bic	r3, r0, #31
  310454:	e0801001 	add	r1, r0, r1
  310458:	e1530001 	cmp	r3, r1
  31045c:	2a000002 	bcs	31046c <spy_cache_invalidate+0x1c>
  310460:	ee073f36 	mcr	15, 0, r3, cr7, cr6, {1}
  310464:	e2833020 	add	r3, r3, #32
  310468:	eafffffa 	b	310458 <spy_cache_invalidate+0x8>
  31046c:	e12fff1e 	bx	lr

00310470 <spy_suppress_mov>:
  310470:	e3a03aff 	mov	r3, #1044480	; 0xff000
  310474:	e5932000 	ldr	r2, [r3]
  310478:	e59f3018 	ldr	r3, [pc, #24]	; 310498 <spy_suppress_mov+0x28>
  31047c:	e1520003 	cmp	r2, r3
  310480:	03a03902 	moveq	r3, #32768	; 0x8000
  310484:	03a02001 	moveq	r2, #1
  310488:	058329f0 	streq	r2, [r3, #2544]	; 0x9f0
  31048c:	03e02000 	mvneq	r2, #0
  310490:	058329b0 	streq	r2, [r3, #2480]	; 0x9b0
  310494:	e12fff1e 	bx	lr
  310498:	52455753 	.word	0x52455753

0031049c <spy_skip_error_path>:
  31049c:	e3a03aff 	mov	r3, #1044480	; 0xff000
  3104a0:	e5930000 	ldr	r0, [r3]
  3104a4:	e59f300c 	ldr	r3, [pc, #12]	; 3104b8 <spy_skip_error_path+0x1c>
  3104a8:	e0630000 	rsb	r0, r3, r0
  3104ac:	e16f0f10 	clz	r0, r0
  3104b0:	e1a002a0 	lsr	r0, r0, #5
  3104b4:	e12fff1e 	bx	lr
  3104b8:	52455753 	.word	0x52455753

003104bc <spy_skip_movwrite>:
  3104bc:	e52de004 	push	{lr}		; (str lr, [sp, #-4]!)
  3104c0:	e3a0caff 	mov	ip, #1044480	; 0xff000
  3104c4:	e59ce000 	ldr	lr, [ip]
  3104c8:	e59fc02c 	ldr	ip, [pc, #44]	; 3104fc <spy_skip_movwrite+0x40>
  3104cc:	e15e000c 	cmp	lr, ip
  3104d0:	0a000002 	beq	3104e0 <spy_skip_movwrite+0x24>
  3104d4:	e59f3024 	ldr	r3, [pc, #36]	; 310500 <spy_skip_movwrite+0x44>
  3104d8:	e49de004 	pop	{lr}		; (ldr lr, [sp], #4)
  3104dc:	e12fff13 	bx	r3
  3104e0:	e0801001 	add	r1, r0, r1
  3104e4:	e3a03902 	mov	r3, #32768	; 0x8000
  3104e8:	e5932a30 	ldr	r2, [r3, #2608]	; 0xa30
  3104ec:	e1510002 	cmp	r1, r2
  3104f0:	05931a2c 	ldreq	r1, [r3, #2604]	; 0xa2c
  3104f4:	e5831980 	str	r1, [r3, #2432]	; 0x980
  3104f8:	e49df004 	pop	{pc}		; (ldr pc, [sp], #4)
  3104fc:	52455753 	.word	0x52455753
  310500:	ff9300b4 	.word	0xff9300b4

00310504 <spy_take_sem_short>:
  310504:	e59f3000 	ldr	r3, [pc]	; 31050c <spy_take_sem_short+0x8>
  310508:	e12fff13 	bx	r3
  31050c:	ff8274b4 	.word	0xff8274b4

00310510 <spy_ring_write>:
  310510:	e3a03aff 	mov	r3, #1044480	; 0xff000
  310514:	e593c000 	ldr	ip, [r3]
  310518:	e59f3110 	ldr	r3, [pc, #272]	; 310630 <spy_ring_write+0x120>
  31051c:	e15c0003 	cmp	ip, r3
  310520:	112fff1e 	bxne	lr
  310524:	e92d4070 	push	{r4, r5, r6, lr}
  310528:	e1a02000 	mov	r2, r0
  31052c:	e1a04001 	mov	r4, r1
  310530:	ebffffc6 	bl	310450 <spy_cache_invalidate>
  310534:	e3a03902 	mov	r3, #32768	; 0x8000
  310538:	e3a01000 	mov	r1, #0
  31053c:	e58319e8 	str	r1, [r3, #2536]	; 0x9e8
  310540:	e58319f0 	str	r1, [r3, #2544]	; 0x9f0
  310544:	e3540004 	cmp	r4, #4
  310548:	9a00001d 	bls	3105c4 <spy_ring_write+0xb4>
  31054c:	e5d01000 	ldrb	r1, [r0]
  310550:	e5d03001 	ldrb	r3, [r0, #1]
  310554:	e1a03803 	lsl	r3, r3, #16
  310558:	e1833c01 	orr	r3, r3, r1, lsl #24
  31055c:	e5d00003 	ldrb	r0, [r0, #3]
  310560:	e1833000 	orr	r3, r3, r0
  310564:	e5d21002 	ldrb	r1, [r2, #2]
  310568:	e1833401 	orr	r3, r3, r1, lsl #8
  31056c:	e2431001 	sub	r1, r3, #1
  310570:	e59f50bc 	ldr	r5, [pc, #188]	; 310634 <spy_ring_write+0x124>
  310574:	e1510005 	cmp	r1, r5
  310578:	8a000011 	bhi	3105c4 <spy_ring_write+0xb4>
  31057c:	e2830004 	add	r0, r3, #4
  310580:	e2831009 	add	r1, r3, #9
  310584:	e1540001 	cmp	r4, r1
  310588:	3a00000e 	bcc	3105c8 <spy_ring_write+0xb8>
  31058c:	e082e003 	add	lr, r2, r3
  310590:	e5dec005 	ldrb	ip, [lr, #5]
  310594:	e7d21000 	ldrb	r1, [r2, r0]
  310598:	e1a01c01 	lsl	r1, r1, #24
  31059c:	e181180c 	orr	r1, r1, ip, lsl #16
  3105a0:	e5dec007 	ldrb	ip, [lr, #7]
  3105a4:	e181100c 	orr	r1, r1, ip
  3105a8:	e5dec006 	ldrb	ip, [lr, #6]
  3105ac:	e181140c 	orr	r1, r1, ip, lsl #8
  3105b0:	e241c001 	sub	ip, r1, #1
  3105b4:	e15c0005 	cmp	ip, r5
  3105b8:	92833008 	addls	r3, r3, #8
  3105bc:	90830001 	addls	r0, r3, r1
  3105c0:	ea000000 	b	3105c8 <spy_ring_write+0xb8>
  3105c4:	e1a00004 	mov	r0, r4
  3105c8:	e59f1068 	ldr	r1, [pc, #104]	; 310638 <spy_ring_write+0x128>
  3105cc:	e5913000 	ldr	r3, [r1]
  3105d0:	e3530000 	cmp	r3, #0
  3105d4:	e3a03aff 	mov	r3, #1044480	; 0xff000
  3105d8:	1a000008 	bne	310600 <spy_ring_write+0xf0>
  3105dc:	e593c00c 	ldr	ip, [r3, #12]
  3105e0:	e28cc001 	add	ip, ip, #1
  3105e4:	e583c00c 	str	ip, [r3, #12]
  3105e8:	e5832004 	str	r2, [r3, #4]
  3105ec:	e5830008 	str	r0, [r3, #8]
  3105f0:	e593200c 	ldr	r2, [r3, #12]
  3105f4:	e2822001 	add	r2, r2, #1
  3105f8:	e583200c 	str	r2, [r3, #12]
  3105fc:	ea000007 	b	310620 <spy_ring_write+0x110>
  310600:	e593c018 	ldr	ip, [r3, #24]
  310604:	e28cc001 	add	ip, ip, #1
  310608:	e583c018 	str	ip, [r3, #24]
  31060c:	e5832010 	str	r2, [r3, #16]
  310610:	e5830014 	str	r0, [r3, #20]
  310614:	e5932018 	ldr	r2, [r3, #24]
  310618:	e2822001 	add	r2, r2, #1
  31061c:	e5832018 	str	r2, [r3, #24]
  310620:	e5913000 	ldr	r3, [r1]
  310624:	e2233001 	eor	r3, r3, #1
  310628:	e5813000 	str	r3, [r1]
  31062c:	e8bd8070 	pop	{r4, r5, r6, pc}
  310630:	52455753 	.word	0x52455753
  310634:	0001d4be 	.word	0x0001d4be
  310638:	0032e3fc 	.word	0x0032e3fc

0031063c <movie_record_task>:
  31063c:	e92d41fc 	push	{r2, r3, r4, r5, r6, r7, r8, lr}
  310640:	e59f74f4 	ldr	r7, [pc, #1268]	; 310b3c <loc_FF85DD0C+0x8>
  310644:	e59f44f4 	ldr	r4, [pc, #1268]	; 310b40 <loc_FF85DD0C+0xc>
  310648:	e3a06000 	mov	r6, #0
  31064c:	e3a05001 	mov	r5, #1

00310650 <loc_FF85E050>:
  310650:	e594001c 	ldr	r0, [r4, #28]
  310654:	e3a02000 	mov	r2, #0
  310658:	e28d100c 	add	r1, sp, #12
  31065c:	ebfff98b 	bl	30ec90 <sub_FF827098>
  310660:	e5940024 	ldr	r0, [r4, #36]	; 0x24
  310664:	e3500000 	cmp	r0, #0
  310668:	1a00002e 	bne	310728 <loc_FF85E120>
  31066c:	e59d000c 	ldr	r0, [sp, #12]
  310670:	e5901000 	ldr	r1, [r0]
  310674:	e2411002 	sub	r1, r1, #2
  310678:	e3510009 	cmp	r1, #9
  31067c:	908ff101 	addls	pc, pc, r1, lsl #2
  310680:	ea000028 	b	310728 <loc_FF85E120>

00310684 <loc_FF85E084>:
  310684:	ea000012 	b	3106d4 <loc_FF85E0D4>

00310688 <loc_FF85E088>:
  310688:	ea00001b 	b	3106fc <loc_FF85E0F4>

0031068c <loc_FF85E08C>:
  31068c:	ea00001e 	b	31070c <loc_FF85E104>

00310690 <loc_FF85E090>:
  310690:	ea00001f 	b	310714 <loc_FF85E10C>

00310694 <loc_FF85E094>:
  310694:	ea000012 	b	3106e4 <loc_FF85E0DC>

00310698 <loc_FF85E098>:
  310698:	ea00001f 	b	31071c <loc_FF85E114>

0031069c <loc_FF85E09C>:
  31069c:	ea000012 	b	3106ec <loc_FF85E0E4>

003106a0 <loc_FF85E0A0>:
  3106a0:	ea000020 	b	310728 <loc_FF85E120>

003106a4 <loc_FF85E0A4>:
  3106a4:	ea00001e 	b	310724 <loc_FF85E11C>

003106a8 <loc_FF85E0A8>:
  3106a8:	eaffffff 	b	3106ac <loc_FF85E0AC>

003106ac <loc_FF85E0AC>:
  3106ac:	e5846038 	str	r6, [r4, #56]	; 0x38
  3106b0:	e59f048c 	ldr	r0, [pc, #1164]	; 310b44 <loc_FF85DD0C+0x10>
  3106b4:	e59f248c 	ldr	r2, [pc, #1164]	; 310b48 <loc_FF85DD0C+0x14>
  3106b8:	e59f148c 	ldr	r1, [pc, #1164]	; 310b4c <loc_FF85DD0C+0x18>
  3106bc:	e58400a0 	str	r0, [r4, #160]	; 0xa0
  3106c0:	e59f0488 	ldr	r0, [pc, #1160]	; 310b50 <loc_FF85DD0C+0x1c>
  3106c4:	e5846028 	str	r6, [r4, #40]	; 0x28
  3106c8:	ebfff9e1 	bl	30ee54 <sub_FF8C3BFC>
  3106cc:	e584503c 	str	r5, [r4, #60]	; 0x3c
  3106d0:	ea000014 	b	310728 <loc_FF85E120>

003106d4 <loc_FF85E0D4>:
  3106d4:	eb004d58 	bl	323c3c <__unlock_optical_zoom_from_arm>
  3106d8:	ebfff98c 	bl	30ed10 <sub_FF85DE1C>
  3106dc:	ebffff63 	bl	310470 <spy_suppress_mov>
  3106e0:	ea000010 	b	310728 <loc_FF85E120>

003106e4 <loc_FF85E0DC>:
  3106e4:	eb000018 	bl	31074c <sub_FF85D98C_my>
  3106e8:	ea00000e 	b	310728 <loc_FF85E120>

003106ec <loc_FF85E0E4>:
  3106ec:	e5901010 	ldr	r1, [r0, #16]
  3106f0:	e5900004 	ldr	r0, [r0, #4]
  3106f4:	ebfff9e1 	bl	30ee80 <sub_FF92FDF0>
  3106f8:	ea00000a 	b	310728 <loc_FF85E120>

003106fc <loc_FF85E0F4>:
  3106fc:	e594003c 	ldr	r0, [r4, #60]	; 0x3c
  310700:	e3500005 	cmp	r0, #5
  310704:	1584502c 	strne	r5, [r4, #44]	; 0x2c
  310708:	ea000006 	b	310728 <loc_FF85E120>

0031070c <loc_FF85E104>:
  31070c:	ebfff97e 	bl	30ed0c <sub_FF85D6CC>
  310710:	ea000004 	b	310728 <loc_FF85E120>

00310714 <loc_FF85E10C>:
  310714:	ebfff97b 	bl	30ed08 <sub_FF85D3BC>
  310718:	ea000002 	b	310728 <loc_FF85E120>

0031071c <loc_FF85E114>:
  31071c:	ebfff978 	bl	30ed04 <sub_FF85D218>
  310720:	ea000000 	b	310728 <loc_FF85E120>

00310724 <loc_FF85E11C>:
  310724:	ebfff97a 	bl	30ed14 <sub_FF85E28C>

00310728 <loc_FF85E120>:
  310728:	e59d100c 	ldr	r1, [sp, #12]
  31072c:	e3a03e43 	mov	r3, #1072	; 0x430
  310730:	e5816000 	str	r6, [r1]
  310734:	e58d3000 	str	r3, [sp]
  310738:	e5940020 	ldr	r0, [r4, #32]
  31073c:	e59f3410 	ldr	r3, [pc, #1040]	; 310b54 <loc_FF85DD0C+0x20>
  310740:	e1a02007 	mov	r2, r7
  310744:	ebfff958 	bl	30ecac <sub_FF8279EC>
  310748:	eaffffc0 	b	310650 <loc_FF85E050>

0031074c <sub_FF85D98C_my>:
  31074c:	e92d47f0 	push	{r4, r5, r6, r7, r8, r9, sl, lr}
  310750:	e24dd040 	sub	sp, sp, #64	; 0x40
  310754:	e3a07000 	mov	r7, #0
  310758:	e59f63e0 	ldr	r6, [pc, #992]	; 310b40 <loc_FF85DD0C+0xc>
  31075c:	e1a04000 	mov	r4, r0
  310760:	e58d7030 	str	r7, [sp, #48]	; 0x30
  310764:	e58d7028 	str	r7, [sp, #40]	; 0x28
  310768:	e596003c 	ldr	r0, [r6, #60]	; 0x3c
  31076c:	e3a09004 	mov	r9, #4
  310770:	e3500003 	cmp	r0, #3
  310774:	0586903c 	streq	r9, [r6, #60]	; 0x3c
  310778:	e59600a0 	ldr	r0, [r6, #160]	; 0xa0
  31077c:	e3a08000 	mov	r8, #0
  310780:	e12fff30 	blx	r0
  310784:	e596003c 	ldr	r0, [r6, #60]	; 0x3c
  310788:	e3500003 	cmp	r0, #3
  31078c:	0586903c 	streq	r9, [r6, #60]	; 0x3c
  310790:	e3500004 	cmp	r0, #4
  310794:	13500003 	cmpne	r0, #3
  310798:	1a000052 	bne	3108e8 <loc_FF85DB10>
  31079c:	e1d600b2 	ldrh	r0, [r6, #2]
  3107a0:	e3a05001 	mov	r5, #1
  3107a4:	e3500001 	cmp	r0, #1
  3107a8:	1a000009 	bne	3107d4 <loc_FF85DA08>
  3107ac:	e1d610b4 	ldrh	r1, [r6, #4]
  3107b0:	e5960048 	ldr	r0, [r6, #72]	; 0x48
  3107b4:	e0000091 	mul	r0, r1, r0
  3107b8:	e3a01ffa 	mov	r1, #1000	; 0x3e8
  3107bc:	ebfff9d1 	bl	30ef08 <sub_FFAD3D98>
  3107c0:	e1a01000 	mov	r1, r0
  3107c4:	e5960050 	ldr	r0, [r6, #80]	; 0x50
  3107c8:	ebfff9ce 	bl	30ef08 <sub_FFAD3D98>
  3107cc:	e3510000 	cmp	r1, #0
  3107d0:	1a000009 	bne	3107fc <loc_FF85DA24>

003107d4 <loc_FF85DA08>:
  3107d4:	e28d3028 	add	r3, sp, #40	; 0x28
  3107d8:	e28d202c 	add	r2, sp, #44	; 0x2c
  3107dc:	e28d1030 	add	r1, sp, #48	; 0x30
  3107e0:	e28d0034 	add	r0, sp, #52	; 0x34
  3107e4:	ebfff9a6 	bl	30ee84 <sub_FF92FE8C>
  3107e8:	e1b08000 	movs	r8, r0
  3107ec:	1a000009 	bne	310818 <loc_FF85DA40>
  3107f0:	e59d0034 	ldr	r0, [sp, #52]	; 0x34
  3107f4:	e59d1030 	ldr	r1, [sp, #48]	; 0x30
  3107f8:	ebffff44 	bl	310510 <spy_ring_write>

003107fc <loc_FF85DA24>:
  3107fc:	e596002c 	ldr	r0, [r6, #44]	; 0x2c
  310800:	e3500001 	cmp	r0, #1
  310804:	1a000042 	bne	310914 <loc_FF85DB24>
  310808:	e5960050 	ldr	r0, [r6, #80]	; 0x50
  31080c:	e5961040 	ldr	r1, [r6, #64]	; 0x40
  310810:	e1500001 	cmp	r0, r1
  310814:	3a00003e 	bcc	310914 <loc_FF85DB24>

00310818 <loc_FF85DA40>:
  310818:	e3580106 	cmp	r8, #-2147483647	; 0x80000001
  31081c:	05869054 	streq	r9, [r6, #84]	; 0x54
  310820:	0a00000a 	beq	310850 <loc_FF85DA78>
  310824:	e358010e 	cmp	r8, #-2147483645	; 0x80000003
  310828:	05865054 	streq	r5, [r6, #84]	; 0x54
  31082c:	0a000007 	beq	310850 <loc_FF85DA78>
  310830:	e3580116 	cmp	r8, #-2147483643	; 0x80000005
  310834:	03a00002 	moveq	r0, #2
  310838:	0a000003 	beq	31084c <loc_FF85DA74>
  31083c:	e358011e 	cmp	r8, #-2147483641	; 0x80000007
  310840:	15867054 	strne	r7, [r6, #84]	; 0x54
  310844:	1a000001 	bne	310850 <loc_FF85DA78>
  310848:	e3a00003 	mov	r0, #3

0031084c <loc_FF85DA74>:
  31084c:	e5860054 	str	r0, [r6, #84]	; 0x54

00310850 <loc_FF85DA78>:
  310850:	e59f0300 	ldr	r0, [pc, #768]	; 310b58 <loc_FF85DD0C+0x24>
  310854:	e5900008 	ldr	r0, [r0, #8]
  310858:	e3500000 	cmp	r0, #0
  31085c:	0a000001 	beq	310868 <loc_FF85DA90>
  310860:	ebfff91a 	bl	30ecd0 <sub_FF847B84>
  310864:	ea000000 	b	31086c <loc_FF85DA94>

00310868 <loc_FF85DA90>:
  310868:	ebfff925 	bl	30ed04 <sub_FF85D218>

0031086c <loc_FF85DA94>:
  31086c:	e5940014 	ldr	r0, [r4, #20]
  310870:	e5941018 	ldr	r1, [r4, #24]
  310874:	e28d3038 	add	r3, sp, #56	; 0x38
  310878:	e3e02001 	mvn	r2, #1
  31087c:	e28d7018 	add	r7, sp, #24
  310880:	e887000f 	stm	r7, {r0, r1, r2, r3}
  310884:	e3a00000 	mov	r0, #0
  310888:	e28d103c 	add	r1, sp, #60	; 0x3c
  31088c:	e28d7008 	add	r7, sp, #8
  310890:	e1c626d8 	ldrd	r2, [r6, #104]	; 0x68
  310894:	e887000f 	stm	r7, {r0, r1, r2, r3}
  310898:	e3a03000 	mov	r3, #0
  31089c:	e3a02040 	mov	r2, #64	; 0x40
  3108a0:	e1cd20f0 	strd	r2, [sp]
  3108a4:	e9940003 	ldmib	r4, {r0, r1}
  3108a8:	e59f32ac 	ldr	r3, [pc, #684]	; 310b5c <loc_FF85DD0C+0x28>
  3108ac:	e1a0200a 	mov	r2, sl
  3108b0:	ebfff969 	bl	30ee5c <sub_FF8EDBE0>
  3108b4:	e5960014 	ldr	r0, [r6, #20]
  3108b8:	e3a01ffa 	mov	r1, #1000	; 0x3e8
  3108bc:	ebffff10 	bl	310504 <spy_take_sem_short>
  3108c0:	e3500009 	cmp	r0, #9
  3108c4:	0a000032 	beq	310994 <loc_FF85DBA4>
  3108c8:	e59d0038 	ldr	r0, [sp, #56]	; 0x38
  3108cc:	e3500000 	cmp	r0, #0
  3108d0:	1a000039 	bne	3109bc <loc_FF85DBC0>
  3108d4:	e3a00001 	mov	r0, #1
  3108d8:	ebfff960 	bl	30ee60 <sub_FF8EDC88>
  3108dc:	ebfff960 	bl	30ee64 <sub_FF8EDCC4>
  3108e0:	e3a00005 	mov	r0, #5
  3108e4:	e586003c 	str	r0, [r6, #60]	; 0x3c

003108e8 <loc_FF85DB10>:
  3108e8:	e28dd040 	add	sp, sp, #64	; 0x40
  3108ec:	e8bd87f0 	pop	{r4, r5, r6, r7, r8, r9, sl, pc}

003108f0 <loc_FF85DB18>:
  3108f0:	ebfff930 	bl	30edb8 <sub_FF879164>
  3108f4:	e3a00001 	mov	r0, #1
  3108f8:	ea00005c 	b	310a70 <loc_FF85DC5C>

003108fc <spy_err_bypass_1>:
  3108fc:	e3a00001 	mov	r0, #1
  310900:	ebfff956 	bl	30ee60 <sub_FF8EDC88>
  310904:	eafffff7 	b	3108e8 <loc_FF85DB10>

00310908 <spy_err_bypass_2>:
  310908:	e3a00000 	mov	r0, #0
  31090c:	ebfff953 	bl	30ee60 <sub_FF8EDC88>
  310910:	eafffff4 	b	3108e8 <loc_FF85DB10>

00310914 <loc_FF85DB24>:
  310914:	e59dc030 	ldr	ip, [sp, #48]	; 0x30
  310918:	e35c0000 	cmp	ip, #0
  31091c:	0a000070 	beq	310ae4 <loc_FF85DCBC>
  310920:	e5865030 	str	r5, [r6, #48]	; 0x30
  310924:	e5960050 	ldr	r0, [r6, #80]	; 0x50
  310928:	e594800c 	ldr	r8, [r4, #12]
  31092c:	e3500000 	cmp	r0, #0
  310930:	159de034 	ldrne	lr, [sp, #52]	; 0x34
  310934:	1a00002e 	bne	3109f4 <loc_FF85DBEC>
  310938:	e5940014 	ldr	r0, [r4, #20]
  31093c:	e5941018 	ldr	r1, [r4, #24]
  310940:	e28d3038 	add	r3, sp, #56	; 0x38
  310944:	e3e02000 	mvn	r2, #0
  310948:	e28d9018 	add	r9, sp, #24
  31094c:	e889000f 	stm	r9, {r0, r1, r2, r3}
  310950:	e1c626d8 	ldrd	r2, [r6, #104]	; 0x68
  310954:	e59d0028 	ldr	r0, [sp, #40]	; 0x28
  310958:	e28d103c 	add	r1, sp, #60	; 0x3c
  31095c:	e28d9008 	add	r9, sp, #8
  310960:	e889000f 	stm	r9, {r0, r1, r2, r3}
  310964:	e59d302c 	ldr	r3, [sp, #44]	; 0x2c
  310968:	e58dc000 	str	ip, [sp]
  31096c:	e58d3004 	str	r3, [sp, #4]
  310970:	e9940003 	ldmib	r4, {r0, r1}
  310974:	e59d3034 	ldr	r3, [sp, #52]	; 0x34
  310978:	e1a02008 	mov	r2, r8
  31097c:	ebfff936 	bl	30ee5c <sub_FF8EDBE0>
  310980:	e5960014 	ldr	r0, [r6, #20]
  310984:	e3a01ffa 	mov	r1, #1000	; 0x3e8
  310988:	ebfffedd 	bl	310504 <spy_take_sem_short>
  31098c:	e3500009 	cmp	r0, #9
  310990:	1a000006 	bne	3109b0 <loc_FF85DBB4>

00310994 <loc_FF85DBA4>:
  310994:	ebfffec0 	bl	31049c <spy_skip_error_path>
  310998:	e3500000 	cmp	r0, #0
  31099c:	1affffd6 	bne	3108fc <spy_err_bypass_1>
  3109a0:	ebfff939 	bl	30ee8c <sub_FF930358>
  3109a4:	e3a00809 	mov	r0, #589824	; 0x90000
  3109a8:	e586503c 	str	r5, [r6, #60]	; 0x3c
  3109ac:	eaffffcf 	b	3108f0 <loc_FF85DB18>

003109b0 <loc_FF85DBB4>:
  3109b0:	e59d0038 	ldr	r0, [sp, #56]	; 0x38
  3109b4:	e3500000 	cmp	r0, #0
  3109b8:	0a000006 	beq	3109d8 <loc_FF85DBD0>

003109bc <loc_FF85DBC0>:
  3109bc:	ebfffeb6 	bl	31049c <spy_skip_error_path>
  3109c0:	e3500000 	cmp	r0, #0
  3109c4:	1affffcc 	bne	3108fc <spy_err_bypass_1>
  3109c8:	ebfff92f 	bl	30ee8c <sub_FF930358>
  3109cc:	e3a0080a 	mov	r0, #655360	; 0xa0000
  3109d0:	e586503c 	str	r5, [r6, #60]	; 0x3c
  3109d4:	eaffffc5 	b	3108f0 <loc_FF85DB18>

003109d8 <loc_FF85DBD0>:
  3109d8:	e3a00001 	mov	r0, #1
  3109dc:	ebfff91f 	bl	30ee60 <sub_FF8EDC88>
  3109e0:	e59d003c 	ldr	r0, [sp, #60]	; 0x3c
  3109e4:	e59d1034 	ldr	r1, [sp, #52]	; 0x34
  3109e8:	e081e000 	add	lr, r1, r0
  3109ec:	e59d1030 	ldr	r1, [sp, #48]	; 0x30
  3109f0:	e041c000 	sub	ip, r1, r0

003109f4 <loc_FF85DBEC>:
  3109f4:	e5940014 	ldr	r0, [r4, #20]
  3109f8:	e596204c 	ldr	r2, [r6, #76]	; 0x4c
  3109fc:	e5941018 	ldr	r1, [r4, #24]
  310a00:	e28d3038 	add	r3, sp, #56	; 0x38
  310a04:	e28d9018 	add	r9, sp, #24
  310a08:	e889000f 	stm	r9, {r0, r1, r2, r3}
  310a0c:	e1c626d8 	ldrd	r2, [r6, #104]	; 0x68
  310a10:	e59d0028 	ldr	r0, [sp, #40]	; 0x28
  310a14:	e28d103c 	add	r1, sp, #60	; 0x3c
  310a18:	e28d9008 	add	r9, sp, #8
  310a1c:	e889000f 	stm	r9, {r0, r1, r2, r3}
  310a20:	e59d302c 	ldr	r3, [sp, #44]	; 0x2c
  310a24:	e58dc000 	str	ip, [sp]
  310a28:	e58d3004 	str	r3, [sp, #4]
  310a2c:	e9940003 	ldmib	r4, {r0, r1}
  310a30:	e1a0300e 	mov	r3, lr
  310a34:	e1a02008 	mov	r2, r8
  310a38:	ebfff907 	bl	30ee5c <sub_FF8EDBE0>
  310a3c:	e5960014 	ldr	r0, [r6, #20]
  310a40:	e3a01ffa 	mov	r1, #1000	; 0x3e8
  310a44:	ebfffeae 	bl	310504 <spy_take_sem_short>
  310a48:	e3500009 	cmp	r0, #9
  310a4c:	1a000009 	bne	310a78 <loc_FF85DC64>
  310a50:	ebfffe91 	bl	31049c <spy_skip_error_path>
  310a54:	e3500000 	cmp	r0, #0
  310a58:	1affffaa 	bne	310908 <spy_err_bypass_2>
  310a5c:	ebfff90a 	bl	30ee8c <sub_FF930358>
  310a60:	e3a00809 	mov	r0, #589824	; 0x90000
  310a64:	e586503c 	str	r5, [r6, #60]	; 0x3c
  310a68:	ebfff8d2 	bl	30edb8 <sub_FF879164>
  310a6c:	e3a00000 	mov	r0, #0

00310a70 <loc_FF85DC5C>:
  310a70:	ebfff8fa 	bl	30ee60 <sub_FF8EDC88>
  310a74:	eaffff9b 	b	3108e8 <loc_FF85DB10>

00310a78 <loc_FF85DC64>:
  310a78:	e59d0038 	ldr	r0, [sp, #56]	; 0x38
  310a7c:	e3500000 	cmp	r0, #0
  310a80:	0a000007 	beq	310aa4 <loc_FF85DC84>
  310a84:	ebfffe84 	bl	31049c <spy_skip_error_path>
  310a88:	e3500000 	cmp	r0, #0
  310a8c:	1affff9d 	bne	310908 <spy_err_bypass_2>
  310a90:	ebfff8fd 	bl	30ee8c <sub_FF930358>
  310a94:	e3a0080a 	mov	r0, #655360	; 0xa0000
  310a98:	e586503c 	str	r5, [r6, #60]	; 0x3c
  310a9c:	ebfff8c5 	bl	30edb8 <sub_FF879164>
  310aa0:	eaffff90 	b	3108e8 <loc_FF85DB10>

00310aa4 <loc_FF85DC84>:
  310aa4:	e3a00000 	mov	r0, #0
  310aa8:	ebfff8ec 	bl	30ee60 <sub_FF8EDC88>
  310aac:	e59d0034 	ldr	r0, [sp, #52]	; 0x34
  310ab0:	e59d103c 	ldr	r1, [sp, #60]	; 0x3c
  310ab4:	ebfff8f3 	bl	30ee88 <sub_FF9300B4>
  310ab8:	e596004c 	ldr	r0, [r6, #76]	; 0x4c
  310abc:	e59f309c 	ldr	r3, [pc, #156]	; 310b60 <loc_FF85DD0C+0x2c>
  310ac0:	e2801001 	add	r1, r0, #1
  310ac4:	e586104c 	str	r1, [r6, #76]	; 0x4c
  310ac8:	e58d3000 	str	r3, [sp]
  310acc:	e59d003c 	ldr	r0, [sp, #60]	; 0x3c
  310ad0:	e2433004 	sub	r3, r3, #4
  310ad4:	e3a0200f 	mov	r2, #15
  310ad8:	ebfff8e7 	bl	30ee7c <sub_FF92E3B0>
  310adc:	e59f0080 	ldr	r0, [pc, #128]	; 310b64 <loc_FF85DD0C+0x30>
  310ae0:	ebfffe4a 	bl	310410 <set_quality>

00310ae4 <loc_FF85DCBC>:
  310ae4:	e5960050 	ldr	r0, [r6, #80]	; 0x50
  310ae8:	e2800001 	add	r0, r0, #1
  310aec:	e5860050 	str	r0, [r6, #80]	; 0x50
  310af0:	e5961078 	ldr	r1, [r6, #120]	; 0x78
  310af4:	e0000091 	mul	r0, r1, r0
  310af8:	e5961074 	ldr	r1, [r6, #116]	; 0x74
  310afc:	ebfff901 	bl	30ef08 <sub_FFAD3D98>
  310b00:	e1a04000 	mov	r4, r0
  310b04:	ebfff8e1 	bl	30ee90 <sub_FF930390>
  310b08:	e5961070 	ldr	r1, [r6, #112]	; 0x70
  310b0c:	e1510004 	cmp	r1, r4
  310b10:	1a000002 	bne	310b20 <loc_FF85DCF8>
  310b14:	e5960034 	ldr	r0, [r6, #52]	; 0x34
  310b18:	e3500001 	cmp	r0, #1
  310b1c:	1a000004 	bne	310b34 <loc_FF85DD0C>

00310b20 <loc_FF85DCF8>:
  310b20:	e5961084 	ldr	r1, [r6, #132]	; 0x84
  310b24:	e1a00004 	mov	r0, r4
  310b28:	e12fff31 	blx	r1
  310b2c:	e5864070 	str	r4, [r6, #112]	; 0x70
  310b30:	e5867034 	str	r7, [r6, #52]	; 0x34

00310b34 <loc_FF85DD0C>:
  310b34:	e5867030 	str	r7, [r6, #48]	; 0x30
  310b38:	eaffff6a 	b	3108e8 <loc_FF85DB10>
  310b3c:	00002710 	.word	0x00002710
  310b40:	000051a8 	.word	0x000051a8
  310b44:	ff85dd14 	.word	0xff85dd14
  310b48:	ff85d28c 	.word	0xff85d28c
  310b4c:	0001ab94 	.word	0x0001ab94
  310b50:	ff85d370 	.word	0xff85d370
  310b54:	ff85d018 	.word	0xff85d018
  310b58:	0001abc8 	.word	0x0001abc8
  310b5c:	0001abe0 	.word	0x0001abe0
  310b60:	00005214 	.word	0x00005214
  310b64:	00005210 	.word	0x00005210

00310b68 <filewrite_get_file_chunk>:
  310b68:	e3e0c000 	mvn	ip, #0
  310b6c:	e583c000 	str	ip, [r3]
  310b70:	e3520002 	cmp	r2, #2
  310b74:	8a000003 	bhi	310b88 <filewrite_get_file_chunk+0x20>
  310b78:	e59f3050 	ldr	r3, [pc, #80]	; 310bd0 <filewrite_get_file_chunk+0x68>
  310b7c:	e5933000 	ldr	r3, [r3]
  310b80:	e3530000 	cmp	r3, #0
  310b84:	1a000005 	bne	310ba0 <filewrite_get_file_chunk+0x38>
  310b88:	e3e03000 	mvn	r3, #0
  310b8c:	e5803000 	str	r3, [r0]
  310b90:	e3a03000 	mov	r3, #0
  310b94:	e5813000 	str	r3, [r1]
  310b98:	e3a00002 	mov	r0, #2
  310b9c:	e12fff1e 	bx	lr
  310ba0:	e083c182 	add	ip, r3, r2, lsl #3
  310ba4:	e7933182 	ldr	r3, [r3, r2, lsl #3]
  310ba8:	e5803000 	str	r3, [r0]
  310bac:	e59c3004 	ldr	r3, [ip, #4]
  310bb0:	e5813000 	str	r3, [r1]
  310bb4:	e3520002 	cmp	r2, #2
  310bb8:	0afffff6 	beq	310b98 <filewrite_get_file_chunk+0x30>
  310bbc:	e59c200c 	ldr	r2, [ip, #12]
  310bc0:	e3520000 	cmp	r2, #0
  310bc4:	03a00002 	moveq	r0, #2
  310bc8:	13a00001 	movne	r0, #1
  310bcc:	e12fff1e 	bx	lr
  310bd0:	0032e400 	.word	0x0032e400

00310bd4 <filewrite_set_discard_file>:
  310bd4:	e59f3004 	ldr	r3, [pc, #4]	; 310be0 <filewrite_set_discard_file+0xc>
  310bd8:	e5830004 	str	r0, [r3, #4]
  310bdc:	e12fff1e 	bx	lr
  310be0:	0032e400 	.word	0x0032e400

00310be4 <filewrite_main_hook>:
  310be4:	e92d4010 	push	{r4, lr}
  310be8:	e59f4014 	ldr	r4, [pc, #20]	; 310c04 <filewrite_main_hook+0x20>
  310bec:	e2800014 	add	r0, r0, #20
  310bf0:	e5840000 	str	r0, [r4]
  310bf4:	eb004b2f 	bl	3238b8 <__remotecap_fwt_jpeg_available_from_arm>
  310bf8:	e3a03000 	mov	r3, #0
  310bfc:	e5843000 	str	r3, [r4]
  310c00:	e8bd8010 	pop	{r4, pc}
  310c04:	0032e400 	.word	0x0032e400

00310c08 <filewrite_file_complete>:
  310c08:	e59f3024 	ldr	r3, [pc, #36]	; 310c34 <filewrite_file_complete+0x2c>
  310c0c:	e5930004 	ldr	r0, [r3, #4]
  310c10:	e3500000 	cmp	r0, #0
  310c14:	012fff1e 	bxeq	lr
  310c18:	e92d4010 	push	{r4, lr}
  310c1c:	e3a02000 	mov	r2, #0
  310c20:	e5832008 	str	r2, [r3, #8]
  310c24:	e583200c 	str	r2, [r3, #12]
  310c28:	eb004bf9 	bl	323c14 <__remotecap_fwt_file_complete_from_arm>
  310c2c:	e3a00001 	mov	r0, #1
  310c30:	e8bd8010 	pop	{r4, pc}
  310c34:	0032e400 	.word	0x0032e400

00310c38 <fwt_open>:
  310c38:	e59f301c 	ldr	r3, [pc, #28]	; 310c5c <fwt_open+0x24>
  310c3c:	e593c004 	ldr	ip, [r3, #4]
  310c40:	e35c0000 	cmp	ip, #0
  310c44:	1a000000 	bne	310c4c <fwt_open+0x14>
  310c48:	eafff99f 	b	30f2cc <_Open>
  310c4c:	e3a02001 	mov	r2, #1
  310c50:	e5832008 	str	r2, [r3, #8]
  310c54:	e3a000ff 	mov	r0, #255	; 0xff
  310c58:	e12fff1e 	bx	lr
  310c5c:	0032e400 	.word	0x0032e400

00310c60 <fwt_write>:
  310c60:	e52de004 	push	{lr}		; (str lr, [sp, #-4]!)
  310c64:	e59f3028 	ldr	r3, [pc, #40]	; 310c94 <fwt_write+0x34>
  310c68:	e593e008 	ldr	lr, [r3, #8]
  310c6c:	e35e0000 	cmp	lr, #0
  310c70:	1a000001 	bne	310c7c <fwt_write+0x1c>
  310c74:	e49de004 	pop	{lr}		; (ldr lr, [sp], #4)
  310c78:	eafff9b9 	b	30f364 <_Write>
  310c7c:	e1a0c002 	mov	ip, r2
  310c80:	e593200c 	ldr	r2, [r3, #12]
  310c84:	e082200c 	add	r2, r2, ip
  310c88:	e583200c 	str	r2, [r3, #12]
  310c8c:	e1a0000c 	mov	r0, ip
  310c90:	e49df004 	pop	{pc}		; (ldr pc, [sp], #4)
  310c94:	0032e400 	.word	0x0032e400

00310c98 <fwt_close>:
  310c98:	e92d4070 	push	{r4, r5, r6, lr}
  310c9c:	e1a05000 	mov	r5, r0
  310ca0:	ebffffd8 	bl	310c08 <filewrite_file_complete>
  310ca4:	e2504000 	subs	r4, r0, #0
  310ca8:	1a000004 	bne	310cc0 <fwt_close+0x28>
  310cac:	e1a00005 	mov	r0, r5
  310cb0:	ebfff951 	bl	30f1fc <_Close>
  310cb4:	e59f300c 	ldr	r3, [pc, #12]	; 310cc8 <fwt_close+0x30>
  310cb8:	e583400c 	str	r4, [r3, #12]
  310cbc:	e8bd8070 	pop	{r4, r5, r6, pc}
  310cc0:	e3a00000 	mov	r0, #0
  310cc4:	e8bd8070 	pop	{r4, r5, r6, pc}
  310cc8:	0032e400 	.word	0x0032e400

00310ccc <filewritetask>:
  310ccc:	e92d403e 	push	{r1, r2, r3, r4, r5, lr}
  310cd0:	e59f40d8 	ldr	r4, [pc, #216]	; 310db0 <loc_FFA1E69C+0x8>

00310cd4 <loc_FFA1E5C8>:
  310cd4:	e5940010 	ldr	r0, [r4, #16]
  310cd8:	e3a02000 	mov	r2, #0
  310cdc:	e28d1008 	add	r1, sp, #8
  310ce0:	ebfff7ea 	bl	30ec90 <sub_FF827098>
  310ce4:	e3500000 	cmp	r0, #0
  310ce8:	1a000005 	bne	310d04 <loc_FFA1E5F8>
  310cec:	e59d0008 	ldr	r0, [sp, #8]
  310cf0:	e5901000 	ldr	r1, [r0]
  310cf4:	e3510001 	cmp	r1, #1
  310cf8:	1a000003 	bne	310d0c <loc_FFA1E600>
  310cfc:	e5940008 	ldr	r0, [r4, #8]
  310d00:	ebfff7e4 	bl	30ec98 <sub_FF827584>

00310d04 <loc_FFA1E5F8>:
  310d04:	ebfff7d2 	bl	30ec54 <sub_FF81B184>
  310d08:	e8bd803e 	pop	{r1, r2, r3, r4, r5, pc}

00310d0c <loc_FFA1E600>:
  310d0c:	e2411002 	sub	r1, r1, #2
  310d10:	e3510005 	cmp	r1, #5
  310d14:	908ff101 	addls	pc, pc, r1, lsl #2
  310d18:	eaffffed 	b	310cd4 <loc_FFA1E5C8>
  310d1c:	ea000004 	b	310d34 <loc_FFA1E628>
  310d20:	ea00001c 	b	310d98 <loc_FFA1E68C>
  310d24:	ea00001d 	b	310da0 <loc_FFA1E694>
  310d28:	ea00001c 	b	310da0 <loc_FFA1E694>
  310d2c:	ea00001b 	b	310da0 <loc_FFA1E694>
  310d30:	ea00001c 	b	310da8 <loc_FFA1E69C>

00310d34 <loc_FFA1E628>:
  310d34:	e3a00000 	mov	r0, #0
  310d38:	e58d0000 	str	r0, [sp]

00310d3c <loc_FFA1E630>:
  310d3c:	e5940010 	ldr	r0, [r4, #16]
  310d40:	e1a0100d 	mov	r1, sp
  310d44:	ebfff7d2 	bl	30ec94 <sub_FF8272DC>
  310d48:	e59d0000 	ldr	r0, [sp]
  310d4c:	e3500000 	cmp	r0, #0
  310d50:	0a000004 	beq	310d68 <loc_FFA1E65C>
  310d54:	e5940010 	ldr	r0, [r4, #16]
  310d58:	e3a02000 	mov	r2, #0
  310d5c:	e28d1004 	add	r1, sp, #4
  310d60:	ebfff7ca 	bl	30ec90 <sub_FF827098>
  310d64:	eafffff4 	b	310d3c <loc_FFA1E630>

00310d68 <loc_FFA1E65C>:
  310d68:	e5940000 	ldr	r0, [r4]
  310d6c:	e3700001 	cmn	r0, #1
  310d70:	0a000005 	beq	310d8c <loc_FFA1E680>
  310d74:	ebffffc7 	bl	310c98 <fwt_close>
  310d78:	e3e00000 	mvn	r0, #0
  310d7c:	e5840000 	str	r0, [r4]
  310d80:	e59f002c 	ldr	r0, [pc, #44]	; 310db4 <loc_FFA1E69C+0xc>
  310d84:	ebfff7db 	bl	30ecf8 <sub_FF8555B0>
  310d88:	ebfff7d5 	bl	30ece4 <sub_FF853C58>

00310d8c <loc_FFA1E680>:
  310d8c:	e594000c 	ldr	r0, [r4, #12]
  310d90:	ebfff7c0 	bl	30ec98 <sub_FF827584>
  310d94:	eaffffce 	b	310cd4 <loc_FFA1E5C8>

00310d98 <loc_FFA1E68C>:
  310d98:	eb000006 	bl	310db8 <sub_FFA1E860_my>
  310d9c:	eaffffcc 	b	310cd4 <loc_FFA1E5C8>

00310da0 <loc_FFA1E694>:
  310da0:	eb00001a 	bl	310e10 <sub_FFA1E99C_my>
  310da4:	eaffffca 	b	310cd4 <loc_FFA1E5C8>

00310da8 <loc_FFA1E69C>:
  310da8:	eb000057 	bl	310f0c <sub_FFA1EA98_my>
  310dac:	eaffffc8 	b	310cd4 <loc_FFA1E5C8>
  310db0:	0000bf3c 	.word	0x0000bf3c
  310db4:	000b1cf4 	.word	0x000b1cf4

00310db8 <sub_FFA1E860_my>:
  310db8:	e92d41f0 	push	{r4, r5, r6, r7, r8, lr}
  310dbc:	e1a04000 	mov	r4, r0
  310dc0:	e280002c 	add	r0, r0, #44	; 0x2c
  310dc4:	e24dd038 	sub	sp, sp, #56	; 0x38
  310dc8:	ebfff7ca 	bl	30ecf8 <sub_FF8555B0>
  310dcc:	e3a01000 	mov	r1, #0
  310dd0:	ebfff7c2 	bl	30ece0 <sub_FF853C08>
  310dd4:	e594000c 	ldr	r0, [r4, #12]
  310dd8:	ebfff7be 	bl	30ecd8 <sub_FF851F18>
  310ddc:	e5947008 	ldr	r7, [r4, #8]
  310de0:	e59f815c 	ldr	r8, [pc, #348]	; 310f44 <loc_FFA1EACC+0x4>
  310de4:	e284602c 	add	r6, r4, #44	; 0x2c
  310de8:	e594500c 	ldr	r5, [r4, #12]
  310dec:	e92d5ff0 	push	{r4, r5, r6, r7, r8, r9, sl, fp, ip, lr}
  310df0:	e1a00004 	mov	r0, r4
  310df4:	ebffff7a 	bl	310be4 <filewrite_main_hook>
  310df8:	e8bd5ff0 	pop	{r4, r5, r6, r7, r8, r9, sl, fp, ip, lr}
  310dfc:	e1a00006 	mov	r0, r6
  310e00:	e1a01007 	mov	r1, r7
  310e04:	e1a02008 	mov	r2, r8
  310e08:	ebffff8a 	bl	310c38 <fwt_open>
  310e0c:	e59ff134 	ldr	pc, [pc, #308]	; 310f48 <loc_FFA1EACC+0x8>

00310e10 <sub_FFA1E99C_my>:
  310e10:	e92d47f0 	push	{r4, r5, r6, r7, r8, r9, sl, lr}
  310e14:	e1a04000 	mov	r4, r0
  310e18:	e5900000 	ldr	r0, [r0]
  310e1c:	e3500004 	cmp	r0, #4
  310e20:	05946018 	ldreq	r6, [r4, #24]
  310e24:	05947014 	ldreq	r7, [r4, #20]
  310e28:	0a000007 	beq	310e4c <loc_FFA1E9D8>
  310e2c:	e3500005 	cmp	r0, #5
  310e30:	05946020 	ldreq	r6, [r4, #32]
  310e34:	0594701c 	ldreq	r7, [r4, #28]
  310e38:	0a000003 	beq	310e4c <loc_FFA1E9D8>
  310e3c:	e3500006 	cmp	r0, #6
  310e40:	1a000006 	bne	310e60 <loc_FFA1E9EC>
  310e44:	e5946028 	ldr	r6, [r4, #40]	; 0x28
  310e48:	e5947024 	ldr	r7, [r4, #36]	; 0x24

00310e4c <loc_FFA1E9D8>:
  310e4c:	e3560000 	cmp	r6, #0
  310e50:	1a000006 	bne	310e70 <loc_FFA1E9FC>

00310e54 <loc_FFA1E9E0>:
  310e54:	e1a01004 	mov	r1, r4
  310e58:	e3a00007 	mov	r0, #7
  310e5c:	ea000028 	b	310f04 <loc_FFA1EA90>

00310e60 <loc_FFA1E9EC>:
  310e60:	e59f10e4 	ldr	r1, [pc, #228]	; 310f4c <loc_FFA1EACC+0xc>
  310e64:	e59f00e4 	ldr	r0, [pc, #228]	; 310f50 <loc_FFA1EACC+0x10>
  310e68:	ebfff77a 	bl	30ec58 <sub_FF81B1CC>
  310e6c:	eafffff8 	b	310e54 <loc_FFA1E9E0>

00310e70 <loc_FFA1E9FC>:
  310e70:	e59f90dc 	ldr	r9, [pc, #220]	; 310f54 <loc_FFA1EACC+0x14>
  310e74:	e1a05006 	mov	r5, r6

00310e78 <loc_FFA1EA04>:
  310e78:	e5940004 	ldr	r0, [r4, #4]
  310e7c:	e3550401 	cmp	r5, #16777216	; 0x1000000
  310e80:	91a08005 	movls	r8, r5
  310e84:	83a08401 	movhi	r8, #16777216	; 0x1000000
  310e88:	e3c014ff 	bic	r1, r0, #-16777216	; 0xff000000
  310e8c:	e3510000 	cmp	r1, #0
  310e90:	13c004ff 	bicne	r0, r0, #-16777216	; 0xff000000
  310e94:	12600401 	rsbne	r0, r0, #16777216	; 0x1000000
  310e98:	11580000 	cmpne	r8, r0
  310e9c:	81a08000 	movhi	r8, r0
  310ea0:	e5990000 	ldr	r0, [r9]
  310ea4:	e1a02008 	mov	r2, r8
  310ea8:	e1a01007 	mov	r1, r7
  310eac:	ebffff6b 	bl	310c60 <fwt_write>
  310eb0:	e5941004 	ldr	r1, [r4, #4]
  310eb4:	e1580000 	cmp	r8, r0
  310eb8:	e0811000 	add	r1, r1, r0
  310ebc:	e5841004 	str	r1, [r4, #4]
  310ec0:	0a000004 	beq	310ed8 <loc_FFA1EA64>
  310ec4:	e59f008c 	ldr	r0, [pc, #140]	; 310f58 <loc_FFA1EACC+0x18>
  310ec8:	ebfff7b9 	bl	30edb4 <sub_FF878BA8>
  310ecc:	e59f1088 	ldr	r1, [pc, #136]	; 310f5c <loc_FFA1EACC+0x1c>
  310ed0:	e5841010 	str	r1, [r4, #16]
  310ed4:	eaffffde 	b	310e54 <loc_FFA1E9E0>

00310ed8 <loc_FFA1EA64>:
  310ed8:	e0455000 	sub	r5, r5, r0
  310edc:	e1550006 	cmp	r5, r6
  310ee0:	e0877000 	add	r7, r7, r0
  310ee4:	259f0064 	ldrcs	r0, [pc, #100]	; 310f50 <loc_FFA1EACC+0x10>
  310ee8:	23a01f8d 	movcs	r1, #564	; 0x234
  310eec:	2bfff759 	blcs	30ec58 <sub_FF81B1CC>
  310ef0:	e3550000 	cmp	r5, #0
  310ef4:	1affffdf 	bne	310e78 <loc_FFA1EA04>
  310ef8:	e5940000 	ldr	r0, [r4]
  310efc:	e1a01004 	mov	r1, r4
  310f00:	e2800001 	add	r0, r0, #1

00310f04 <loc_FFA1EA90>:
  310f04:	e8bd47f0 	pop	{r4, r5, r6, r7, r8, r9, sl, lr}
  310f08:	eafff7fa 	b	30eef8 <sub_FFA1E518>

00310f0c <sub_FFA1EA98_my>:
  310f0c:	e92d4030 	push	{r4, r5, lr}
  310f10:	e59f503c 	ldr	r5, [pc, #60]	; 310f54 <loc_FFA1EACC+0x14>
  310f14:	e1a04000 	mov	r4, r0
  310f18:	e5950000 	ldr	r0, [r5]
  310f1c:	e24dd01c 	sub	sp, sp, #28
  310f20:	e3700001 	cmn	r0, #1
  310f24:	0a000005 	beq	310f40 <loc_FFA1EACC>
  310f28:	ebffff5a 	bl	310c98 <fwt_close>
  310f2c:	e3500000 	cmp	r0, #0
  310f30:	159f0028 	ldrne	r0, [pc, #40]	; 310f60 <loc_FFA1EACC+0x20>
  310f34:	15840010 	strne	r0, [r4, #16]
  310f38:	e3e00000 	mvn	r0, #0
  310f3c:	e5850000 	str	r0, [r5]

00310f40 <loc_FFA1EACC>:
  310f40:	e59ff01c 	ldr	pc, [pc, #28]	; 310f64 <loc_FFA1EACC+0x24>
  310f44:	000001b6 	.word	0x000001b6
  310f48:	ffa1e8a4 	.word	0xffa1e8a4
  310f4c:	00000205 	.word	0x00000205
  310f50:	ffa1e97c 	.word	0xffa1e97c
  310f54:	0000bf3c 	.word	0x0000bf3c
  310f58:	000010b1 	.word	0x000010b1
  310f5c:	09200005 	.word	0x09200005
  310f60:	09200003 	.word	0x09200003
  310f64:	ffa1eacc 	.word	0xffa1eacc

00310f68 <dump_memory>:
  310f68:	b5f7      	push	{r0, r1, r2, r4, r5, r6, r7, lr}
  310f6a:	4c33      	ldr	r4, [pc, #204]	; (311038 <dump_memory+0xd0>)
  310f6c:	2180      	movs	r1, #128	; 0x80
  310f6e:	0109      	lsls	r1, r1, #4
  310f70:	5863      	ldr	r3, [r4, r1]
  310f72:	4a32      	ldr	r2, [pc, #200]	; (31103c <dump_memory+0xd4>)
  310f74:	2b00      	cmp	r3, #0
  310f76:	d102      	bne.n	310f7e <dump_memory+0x16>
  310f78:	6b13      	ldr	r3, [r2, #48]	; 0x30
  310f7a:	3301      	adds	r3, #1
  310f7c:	5063      	str	r3, [r4, r1]
  310f7e:	6b13      	ldr	r3, [r2, #48]	; 0x30
  310f80:	4d2f      	ldr	r5, [pc, #188]	; (311040 <dump_memory+0xd8>)
  310f82:	5962      	ldr	r2, [r4, r5]
  310f84:	429a      	cmp	r2, r3
  310f86:	d901      	bls.n	310f8c <dump_memory+0x24>
  310f88:	2200      	movs	r2, #0
  310f8a:	5162      	str	r2, [r4, r5]
  310f8c:	5960      	ldr	r0, [r4, r5]
  310f8e:	3301      	adds	r3, #1
  310f90:	2180      	movs	r1, #128	; 0x80
  310f92:	0109      	lsls	r1, r1, #4
  310f94:	5862      	ldr	r2, [r4, r1]
  310f96:	1882      	adds	r2, r0, r2
  310f98:	429a      	cmp	r2, r3
  310f9a:	d901      	bls.n	310fa0 <dump_memory+0x38>
  310f9c:	1a1b      	subs	r3, r3, r0
  310f9e:	5063      	str	r3, [r4, r1]
  310fa0:	2001      	movs	r0, #1
  310fa2:	f012 fc7d 	bl	3238a0 <__debug_led_from_thumb>
  310fa6:	f007 fb2b 	bl	318600 <is_video_recording>
  310faa:	2800      	cmp	r0, #0
  310fac:	d13f      	bne.n	31102e <dump_memory+0xc6>
  310fae:	4825      	ldr	r0, [pc, #148]	; (311044 <dump_memory+0xdc>)
  310fb0:	f012 fd6a 	bl	323a88 <__mkdir_from_thumb>
  310fb4:	4824      	ldr	r0, [pc, #144]	; (311048 <dump_memory+0xe0>)
  310fb6:	f012 fd67 	bl	323a88 <__mkdir_from_thumb>
  310fba:	4e24      	ldr	r6, [pc, #144]	; (31104c <dump_memory+0xe4>)
  310fbc:	6832      	ldr	r2, [r6, #0]
  310fbe:	1c53      	adds	r3, r2, #1
  310fc0:	6033      	str	r3, [r6, #0]
  310fc2:	4f23      	ldr	r7, [pc, #140]	; (311050 <dump_memory+0xe8>)
  310fc4:	4923      	ldr	r1, [pc, #140]	; (311054 <dump_memory+0xec>)
  310fc6:	0038      	movs	r0, r7
  310fc8:	f012 fed4 	bl	323d74 <__sprintf_from_thumb>
  310fcc:	2100      	movs	r1, #0
  310fce:	0038      	movs	r0, r7
  310fd0:	f012 fd2e 	bl	323a30 <__stat_from_thumb>
  310fd4:	2800      	cmp	r0, #0
  310fd6:	d008      	beq.n	310fea <dump_memory+0x82>
  310fd8:	4a1f      	ldr	r2, [pc, #124]	; (311058 <dump_memory+0xf0>)
  310fda:	2102      	movs	r1, #2
  310fdc:	31ff      	adds	r1, #255	; 0xff
  310fde:	0038      	movs	r0, r7
  310fe0:	f012 fc56 	bl	323890 <__open_from_thumb>
  310fe4:	1e06      	subs	r6, r0, #0
  310fe6:	da05      	bge.n	310ff4 <dump_memory+0x8c>
  310fe8:	e01f      	b.n	31102a <dump_memory+0xc2>
  310fea:	4b1c      	ldr	r3, [pc, #112]	; (31105c <dump_memory+0xf4>)
  310fec:	6832      	ldr	r2, [r6, #0]
  310fee:	429a      	cmp	r2, r3
  310ff0:	dde3      	ble.n	310fba <dump_memory+0x52>
  310ff2:	e01a      	b.n	31102a <dump_memory+0xc2>
  310ff4:	5961      	ldr	r1, [r4, r5]
  310ff6:	2380      	movs	r3, #128	; 0x80
  310ff8:	2900      	cmp	r1, #0
  310ffa:	d10e      	bne.n	31101a <dump_memory+0xb2>
  310ffc:	05db      	lsls	r3, r3, #23
  310ffe:	681b      	ldr	r3, [r3, #0]
  311000:	9301      	str	r3, [sp, #4]
  311002:	2204      	movs	r2, #4
  311004:	a901      	add	r1, sp, #4
  311006:	f012 fd3b 	bl	323a80 <__write_from_thumb>
  31100a:	2380      	movs	r3, #128	; 0x80
  31100c:	011b      	lsls	r3, r3, #4
  31100e:	58e2      	ldr	r2, [r4, r3]
  311010:	2a04      	cmp	r2, #4
  311012:	dd07      	ble.n	311024 <dump_memory+0xbc>
  311014:	3a04      	subs	r2, #4
  311016:	2104      	movs	r1, #4
  311018:	e001      	b.n	31101e <dump_memory+0xb6>
  31101a:	011b      	lsls	r3, r3, #4
  31101c:	58e2      	ldr	r2, [r4, r3]
  31101e:	0030      	movs	r0, r6
  311020:	f012 fd2e 	bl	323a80 <__write_from_thumb>
  311024:	0030      	movs	r0, r6
  311026:	f012 fe0f 	bl	323c48 <__close_from_thumb>
  31102a:	f012 feb1 	bl	323d90 <__vid_bitmap_refresh_from_thumb>
  31102e:	2000      	movs	r0, #0
  311030:	f012 fc36 	bl	3238a0 <__debug_led_from_thumb>
  311034:	bdf7      	pop	{r0, r1, r2, r4, r5, r6, r7, pc}
  311036:	46c0      	nop			; (mov r8, r8)
  311038:	0033111c 	.word	0x0033111c
  31103c:	0032b718 	.word	0x0032b718
  311040:	000007fc 	.word	0x000007fc
  311044:	00324098 	.word	0x00324098
  311048:	0032409f 	.word	0x0032409f
  31104c:	00328668 	.word	0x00328668
  311050:	0032e410 	.word	0x0032e410
  311054:	003240af 	.word	0x003240af
  311058:	000001ff 	.word	0x000001ff
  31105c:	0000270e 	.word	0x0000270e

00311060 <schedule_memdump>:
  311060:	b510      	push	{r4, lr}
  311062:	0004      	movs	r4, r0
  311064:	f012 fe7e 	bl	323d64 <__get_tick_count_from_thumb>
  311068:	23fa      	movs	r3, #250	; 0xfa
  31106a:	009b      	lsls	r3, r3, #2
  31106c:	435c      	muls	r4, r3
  31106e:	1820      	adds	r0, r4, r0
  311070:	4b01      	ldr	r3, [pc, #4]	; (311078 <schedule_memdump+0x18>)
  311072:	6218      	str	r0, [r3, #32]
  311074:	bd10      	pop	{r4, pc}
  311076:	46c0      	nop			; (mov r8, r8)
  311078:	0032e410 	.word	0x0032e410

0031107c <core_get_free_memory>:
  31107c:	b500      	push	{lr}
  31107e:	b08b      	sub	sp, #44	; 0x2c
  311080:	a801      	add	r0, sp, #4
  311082:	f001 f8ff 	bl	312284 <GetCombinedMemInfo>
  311086:	9808      	ldr	r0, [sp, #32]
  311088:	b00b      	add	sp, #44	; 0x2c
  31108a:	bd00      	pop	{pc}

0031108c <core_rawdata_available>:
  31108c:	2201      	movs	r2, #1
  31108e:	4b01      	ldr	r3, [pc, #4]	; (311094 <core_rawdata_available+0x8>)
  311090:	625a      	str	r2, [r3, #36]	; 0x24
  311092:	4770      	bx	lr
  311094:	0032e410 	.word	0x0032e410

00311098 <core_spytask_can_start>:
  311098:	2201      	movs	r2, #1
  31109a:	4b01      	ldr	r3, [pc, #4]	; (3110a0 <core_spytask_can_start+0x8>)
  31109c:	629a      	str	r2, [r3, #40]	; 0x28
  31109e:	4770      	bx	lr
  3110a0:	0032e410 	.word	0x0032e410

003110a4 <script_autostart>:
  3110a4:	b510      	push	{r4, lr}
  3110a6:	2000      	movs	r0, #0
  3110a8:	f002 fec6 	bl	313e38 <enter_alt>
  3110ac:	f002 fe3e 	bl	313d2c <gui_activate_alt_mode>
  3110b0:	2001      	movs	r0, #1
  3110b2:	f00d fd59 	bl	31eb68 <script_start_gui>
  3110b6:	bd10      	pop	{r4, pc}

003110b8 <core_spytask>:
  3110b8:	b5f0      	push	{r4, r5, r6, r7, lr}
  3110ba:	b087      	sub	sp, #28
  3110bc:	4a84      	ldr	r2, [pc, #528]	; (3112d0 <core_spytask+0x218>)
  3110be:	4985      	ldr	r1, [pc, #532]	; (3112d4 <core_spytask+0x21c>)
  3110c0:	4885      	ldr	r0, [pc, #532]	; (3112d8 <core_spytask+0x220>)
  3110c2:	f00f f89c 	bl	3201fe <parse_version>
  3110c6:	f007 fcc3 	bl	318a50 <camera_info_init>
  3110ca:	f001 f8c9 	bl	312260 <aram_malloc_init>
  3110ce:	f001 f8b5 	bl	31223c <exmem_malloc_init>
  3110d2:	f008 fa6f 	bl	3195b4 <init_chdk_ptp_task>
  3110d6:	4c81      	ldr	r4, [pc, #516]	; (3112dc <core_spytask+0x224>)
  3110d8:	3c01      	subs	r4, #1
  3110da:	2c00      	cmp	r4, #0
  3110dc:	d007      	beq.n	3110ee <core_spytask+0x36>
  3110de:	4b80      	ldr	r3, [pc, #512]	; (3112e0 <core_spytask+0x228>)
  3110e0:	6a9b      	ldr	r3, [r3, #40]	; 0x28
  3110e2:	2b00      	cmp	r3, #0
  3110e4:	d103      	bne.n	3110ee <core_spytask+0x36>
  3110e6:	200a      	movs	r0, #10
  3110e8:	f012 fe14 	bl	323d14 <__msleep_from_thumb>
  3110ec:	e7f4      	b.n	3110d8 <core_spytask+0x20>
  3110ee:	2001      	movs	r0, #1
  3110f0:	f012 fbd6 	bl	3238a0 <__debug_led_from_thumb>
  3110f4:	2032      	movs	r0, #50	; 0x32
  3110f6:	f012 fe0d 	bl	323d14 <__msleep_from_thumb>
  3110fa:	2000      	movs	r0, #0
  3110fc:	f012 fbd0 	bl	3238a0 <__debug_led_from_thumb>
  311100:	f003 fc9e 	bl	314a40 <conf_restore>
  311104:	f002 fade 	bl	3136c4 <gui_init>
  311108:	2400      	movs	r4, #0
  31110a:	4b76      	ldr	r3, [pc, #472]	; (3112e4 <core_spytask+0x22c>)
  31110c:	58e0      	ldr	r0, [r4, r3]
  31110e:	f012 fce3 	bl	323ad8 <__mkdir_if_not_exist_from_thumb>
  311112:	3404      	adds	r4, #4
  311114:	2c38      	cmp	r4, #56	; 0x38
  311116:	d1f8      	bne.n	31110a <core_spytask+0x52>
  311118:	2100      	movs	r1, #0
  31111a:	4873      	ldr	r0, [pc, #460]	; (3112e8 <core_spytask+0x230>)
  31111c:	f012 fc88 	bl	323a30 <__stat_from_thumb>
  311120:	9003      	str	r0, [sp, #12]
  311122:	2000      	movs	r0, #0
  311124:	f012 fe64 	bl	323df0 <__time_from_thumb>
  311128:	0006      	movs	r6, r0
  31112a:	f012 fe1b 	bl	323d64 <__get_tick_count_from_thumb>
  31112e:	4c6f      	ldr	r4, [pc, #444]	; (3112ec <core_spytask+0x234>)
  311130:	6520      	str	r0, [r4, #80]	; 0x50
  311132:	2000      	movs	r0, #0
  311134:	f012 fe5c 	bl	323df0 <__time_from_thumb>
  311138:	0005      	movs	r5, r0
  31113a:	200a      	movs	r0, #10
  31113c:	f012 fdea 	bl	323d14 <__msleep_from_thumb>
  311140:	42ae      	cmp	r6, r5
  311142:	d001      	beq.n	311148 <core_spytask+0x90>
  311144:	002e      	movs	r6, r5
  311146:	e7f0      	b.n	31112a <core_spytask+0x72>
  311148:	21fa      	movs	r1, #250	; 0xfa
  31114a:	0089      	lsls	r1, r1, #2
  31114c:	6d20      	ldr	r0, [r4, #80]	; 0x50
  31114e:	f012 fbcd 	bl	3238ec <____aeabi_idivmod_from_thumb>
  311152:	6521      	str	r1, [r4, #80]	; 0x50
  311154:	4d66      	ldr	r5, [pc, #408]	; (3112f0 <core_spytask+0x238>)
  311156:	4b67      	ldr	r3, [pc, #412]	; (3112f4 <core_spytask+0x23c>)
  311158:	58ea      	ldr	r2, [r5, r3]
  31115a:	2a01      	cmp	r2, #1
  31115c:	d005      	beq.n	31116a <core_spytask+0xb2>
  31115e:	2a02      	cmp	r2, #2
  311160:	d105      	bne.n	31116e <core_spytask+0xb6>
  311162:	2200      	movs	r2, #0
  311164:	50ea      	str	r2, [r5, r3]
  311166:	f003 fb67 	bl	314838 <conf_save>
  31116a:	f7ff ff9b 	bl	3110a4 <script_autostart>
  31116e:	f006 fbf6 	bl	31795e <shooting_init>
  311172:	4b61      	ldr	r3, [pc, #388]	; (3112f8 <core_spytask+0x240>)
  311174:	58eb      	ldr	r3, [r5, r3]
  311176:	2b00      	cmp	r3, #0
  311178:	d002      	beq.n	311180 <core_spytask+0xc8>
  31117a:	4860      	ldr	r0, [pc, #384]	; (3112fc <core_spytask+0x244>)
  31117c:	f00e fc7c 	bl	31fa78 <module_run>
  311180:	2601      	movs	r6, #1
  311182:	f007 faa5 	bl	3186d0 <mode_get>
  311186:	f000 f9c9 	bl	31151c <set_palette>
  31118a:	4d55      	ldr	r5, [pc, #340]	; (3112e0 <core_spytask+0x228>)
  31118c:	6a2b      	ldr	r3, [r5, #32]
  31118e:	2b00      	cmp	r3, #0
  311190:	d008      	beq.n	3111a4 <core_spytask+0xec>
  311192:	f012 fde7 	bl	323d64 <__get_tick_count_from_thumb>
  311196:	6a2b      	ldr	r3, [r5, #32]
  311198:	4298      	cmp	r0, r3
  31119a:	d303      	bcc.n	3111a4 <core_spytask+0xec>
  31119c:	2300      	movs	r3, #0
  31119e:	622b      	str	r3, [r5, #32]
  3111a0:	f7ff fee2 	bl	310f68 <dump_memory>
  3111a4:	f002 fdc2 	bl	313d2c <gui_activate_alt_mode>
  3111a8:	6a6b      	ldr	r3, [r5, #36]	; 0x24
  3111aa:	2b00      	cmp	r3, #0
  3111ac:	d006      	beq.n	3111bc <core_spytask+0x104>
  3111ae:	f005 fe27 	bl	316e00 <raw_process>
  3111b2:	f012 fbbf 	bl	323934 <__hook_raw_save_complete_from_thumb>
  3111b6:	2300      	movs	r3, #0
  3111b8:	626b      	str	r3, [r5, #36]	; 0x24
  3111ba:	e7e2      	b.n	311182 <core_spytask+0xca>
  3111bc:	0023      	movs	r3, r4
  3111be:	33c0      	adds	r3, #192	; 0xc0
  3111c0:	681b      	ldr	r3, [r3, #0]
  3111c2:	2b02      	cmp	r3, #2
  3111c4:	d104      	bne.n	3111d0 <core_spytask+0x118>
  3111c6:	4b4e      	ldr	r3, [pc, #312]	; (311300 <core_spytask+0x248>)
  3111c8:	681b      	ldr	r3, [r3, #0]
  3111ca:	0037      	movs	r7, r6
  3111cc:	2b00      	cmp	r3, #0
  3111ce:	d018      	beq.n	311202 <core_spytask+0x14a>
  3111d0:	1c77      	adds	r7, r6, #1
  3111d2:	07b3      	lsls	r3, r6, #30
  3111d4:	d115      	bne.n	311202 <core_spytask+0x14a>
  3111d6:	f002 fd47 	bl	313c68 <gui_redraw>
  3111da:	9b03      	ldr	r3, [sp, #12]
  3111dc:	2b00      	cmp	r3, #0
  3111de:	d010      	beq.n	311202 <core_spytask+0x14a>
  3111e0:	209c      	movs	r0, #156	; 0x9c
  3111e2:	0080      	lsls	r0, r0, #2
  3111e4:	f009 fb14 	bl	31a810 <lang_str>
  3111e8:	0006      	movs	r6, r0
  3111ea:	238a      	movs	r3, #138	; 0x8a
  3111ec:	009b      	lsls	r3, r3, #2
  3111ee:	4a40      	ldr	r2, [pc, #256]	; (3112f0 <core_spytask+0x238>)
  3111f0:	58d0      	ldr	r0, [r2, r3]
  3111f2:	f000 f9cd 	bl	311590 <user_color>
  3111f6:	0003      	movs	r3, r0
  3111f8:	0032      	movs	r2, r6
  3111fa:	2110      	movs	r1, #16
  3111fc:	2008      	movs	r0, #8
  3111fe:	f000 fdf9 	bl	311df4 <draw_string>
  311202:	0023      	movs	r3, r4
  311204:	33c0      	adds	r3, #192	; 0xc0
  311206:	681b      	ldr	r3, [r3, #0]
  311208:	2b02      	cmp	r3, #2
  31120a:	d027      	beq.n	31125c <core_spytask+0x1a4>
  31120c:	4e38      	ldr	r6, [pc, #224]	; (3112f0 <core_spytask+0x238>)
  31120e:	6f33      	ldr	r3, [r6, #112]	; 0x70
  311210:	2b00      	cmp	r3, #0
  311212:	d003      	beq.n	31121c <core_spytask+0x164>
  311214:	4b3b      	ldr	r3, [pc, #236]	; (311304 <core_spytask+0x24c>)
  311216:	681b      	ldr	r3, [r3, #0]
  311218:	695b      	ldr	r3, [r3, #20]
  31121a:	4798      	blx	r3
  31121c:	0023      	movs	r3, r4
  31121e:	33d0      	adds	r3, #208	; 0xd0
  311220:	681b      	ldr	r3, [r3, #0]
  311222:	2b00      	cmp	r3, #0
  311224:	d104      	bne.n	311230 <core_spytask+0x178>
  311226:	0023      	movs	r3, r4
  311228:	33d4      	adds	r3, #212	; 0xd4
  31122a:	681b      	ldr	r3, [r3, #0]
  31122c:	2b00      	cmp	r3, #0
  31122e:	d010      	beq.n	311252 <core_spytask+0x19a>
  311230:	23de      	movs	r3, #222	; 0xde
  311232:	00db      	lsls	r3, r3, #3
  311234:	58f3      	ldr	r3, [r6, r3]
  311236:	2b00      	cmp	r3, #0
  311238:	d00b      	beq.n	311252 <core_spytask+0x19a>
  31123a:	23dd      	movs	r3, #221	; 0xdd
  31123c:	00db      	lsls	r3, r3, #3
  31123e:	58f3      	ldr	r3, [r6, r3]
  311240:	2b00      	cmp	r3, #0
  311242:	d006      	beq.n	311252 <core_spytask+0x19a>
  311244:	6aeb      	ldr	r3, [r5, #44]	; 0x2c
  311246:	2b00      	cmp	r3, #0
  311248:	d003      	beq.n	311252 <core_spytask+0x19a>
  31124a:	4b2f      	ldr	r3, [pc, #188]	; (311308 <core_spytask+0x250>)
  31124c:	681b      	ldr	r3, [r3, #0]
  31124e:	695b      	ldr	r3, [r3, #20]
  311250:	4798      	blx	r3
  311252:	0023      	movs	r3, r4
  311254:	33c0      	adds	r3, #192	; 0xc0
  311256:	681b      	ldr	r3, [r3, #0]
  311258:	2b02      	cmp	r3, #2
  31125a:	d107      	bne.n	31126c <core_spytask+0x1b4>
  31125c:	f005 ffc0 	bl	3171e0 <shooting_in_progress>
  311260:	2800      	cmp	r0, #0
  311262:	d103      	bne.n	31126c <core_spytask+0x1b4>
  311264:	0023      	movs	r3, r4
  311266:	33c0      	adds	r3, #192	; 0xc0
  311268:	2203      	movs	r2, #3
  31126a:	601a      	str	r2, [r3, #0]
  31126c:	0023      	movs	r3, r4
  31126e:	33f8      	adds	r3, #248	; 0xf8
  311270:	681b      	ldr	r3, [r3, #0]
  311272:	2b00      	cmp	r3, #0
  311274:	d022      	beq.n	3112bc <core_spytask+0x204>
  311276:	0023      	movs	r3, r4
  311278:	33fc      	adds	r3, #252	; 0xfc
  31127a:	689a      	ldr	r2, [r3, #8]
  31127c:	9204      	str	r2, [sp, #16]
  31127e:	68da      	ldr	r2, [r3, #12]
  311280:	9205      	str	r2, [sp, #20]
  311282:	691e      	ldr	r6, [r3, #16]
  311284:	6999      	ldr	r1, [r3, #24]
  311286:	2900      	cmp	r1, #0
  311288:	d003      	beq.n	311292 <core_spytask+0x1da>
  31128a:	6958      	ldr	r0, [r3, #20]
  31128c:	f012 fd46 	bl	323d1c <____aeabi_uidiv_from_thumb>
  311290:	0001      	movs	r1, r0
  311292:	4d1e      	ldr	r5, [pc, #120]	; (31130c <core_spytask+0x254>)
  311294:	9101      	str	r1, [sp, #4]
  311296:	9600      	str	r6, [sp, #0]
  311298:	9b05      	ldr	r3, [sp, #20]
  31129a:	9a04      	ldr	r2, [sp, #16]
  31129c:	491c      	ldr	r1, [pc, #112]	; (311310 <core_spytask+0x258>)
  31129e:	0028      	movs	r0, r5
  3112a0:	f012 fd68 	bl	323d74 <__sprintf_from_thumb>
  3112a4:	4b12      	ldr	r3, [pc, #72]	; (3112f0 <core_spytask+0x238>)
  3112a6:	2289      	movs	r2, #137	; 0x89
  3112a8:	0092      	lsls	r2, r2, #2
  3112aa:	5898      	ldr	r0, [r3, r2]
  3112ac:	f000 f970 	bl	311590 <user_color>
  3112b0:	0003      	movs	r3, r0
  3112b2:	002a      	movs	r2, r5
  3112b4:	2100      	movs	r1, #0
  3112b6:	2001      	movs	r0, #1
  3112b8:	f000 fe8f 	bl	311fda <draw_txt_string>
  3112bc:	f00e fc30 	bl	31fb20 <module_tick_unloader>
  3112c0:	2014      	movs	r0, #20
  3112c2:	f012 fd27 	bl	323d14 <__msleep_from_thumb>
  3112c6:	4b06      	ldr	r3, [pc, #24]	; (3112e0 <core_spytask+0x228>)
  3112c8:	2201      	movs	r2, #1
  3112ca:	62da      	str	r2, [r3, #44]	; 0x2c
  3112cc:	003e      	movs	r6, r7
  3112ce:	e758      	b.n	311182 <core_spytask+0xca>
  3112d0:	00327c37 	.word	0x00327c37
  3112d4:	00324db5 	.word	0x00324db5
  3112d8:	00331aac 	.word	0x00331aac
  3112dc:	000003e9 	.word	0x000003e9
  3112e0:	0032e410 	.word	0x0032e410
  3112e4:	00324060 	.word	0x00324060
  3112e8:	003240cc 	.word	0x003240cc
  3112ec:	0032b718 	.word	0x0032b718
  3112f0:	0033111c 	.word	0x0033111c
  3112f4:	00000644 	.word	0x00000644
  3112f8:	00000828 	.word	0x00000828
  3112fc:	003240e7 	.word	0x003240e7
  311300:	00009e9c 	.word	0x00009e9c
  311304:	0032d290 	.word	0x0032d290
  311308:	0032d240 	.word	0x0032d240
  31130c:	00331974 	.word	0x00331974
  311310:	003240f1 	.word	0x003240f1

00311314 <draw_pixel_std>:
  311314:	4b02      	ldr	r3, [pc, #8]	; (311320 <draw_pixel_std+0xc>)
  311316:	681a      	ldr	r2, [r3, #0]
  311318:	685b      	ldr	r3, [r3, #4]
  31131a:	5419      	strb	r1, [r3, r0]
  31131c:	5411      	strb	r1, [r2, r0]
  31131e:	4770      	bx	lr
  311320:	0032e440 	.word	0x0032e440

00311324 <draw_pixel_proc_rotated>:
  311324:	b510      	push	{r4, lr}
  311326:	4b03      	ldr	r3, [pc, #12]	; (311334 <draw_pixel_proc_rotated+0x10>)
  311328:	681b      	ldr	r3, [r3, #0]
  31132a:	1a18      	subs	r0, r3, r0
  31132c:	4b02      	ldr	r3, [pc, #8]	; (311338 <draw_pixel_proc_rotated+0x14>)
  31132e:	681b      	ldr	r3, [r3, #0]
  311330:	4798      	blx	r3
  311332:	bd10      	pop	{r4, pc}
  311334:	00331110 	.word	0x00331110
  311338:	0033110c 	.word	0x0033110c

0031133c <get_cdata>:
  31133c:	b570      	push	{r4, r5, r6, lr}
  31133e:	0004      	movs	r4, r0
  311340:	000d      	movs	r5, r1
  311342:	0010      	movs	r0, r2
  311344:	f008 fde0 	bl	319f08 <get_current_font_data>
  311348:	7803      	ldrb	r3, [r0, #0]
  31134a:	091b      	lsrs	r3, r3, #4
  31134c:	6023      	str	r3, [r4, #0]
  31134e:	7802      	ldrb	r2, [r0, #0]
  311350:	230f      	movs	r3, #15
  311352:	4013      	ands	r3, r2
  311354:	2210      	movs	r2, #16
  311356:	1ad3      	subs	r3, r2, r3
  311358:	602b      	str	r3, [r5, #0]
  31135a:	6822      	ldr	r2, [r4, #0]
  31135c:	4293      	cmp	r3, r2
  31135e:	d101      	bne.n	311364 <get_cdata+0x28>
  311360:	3301      	adds	r3, #1
  311362:	6023      	str	r3, [r4, #0]
  311364:	6823      	ldr	r3, [r4, #0]
  311366:	1ac0      	subs	r0, r0, r3
  311368:	3001      	adds	r0, #1
  31136a:	bd70      	pop	{r4, r5, r6, pc}

0031136c <draw_set_guard>:
  31136c:	4a05      	ldr	r2, [pc, #20]	; (311384 <draw_set_guard+0x18>)
  31136e:	6813      	ldr	r3, [r2, #0]
  311370:	7b59      	ldrb	r1, [r3, #13]
  311372:	4b05      	ldr	r3, [pc, #20]	; (311388 <draw_set_guard+0x1c>)
  311374:	6818      	ldr	r0, [r3, #0]
  311376:	7001      	strb	r1, [r0, #0]
  311378:	6812      	ldr	r2, [r2, #0]
  31137a:	7b52      	ldrb	r2, [r2, #13]
  31137c:	685b      	ldr	r3, [r3, #4]
  31137e:	701a      	strb	r2, [r3, #0]
  311380:	4770      	bx	lr
  311382:	46c0      	nop			; (mov r8, r8)
  311384:	0032866c 	.word	0x0032866c
  311388:	0032e440 	.word	0x0032e440

0031138c <draw_test_guard>:
  31138c:	b510      	push	{r4, lr}
  31138e:	4b08      	ldr	r3, [pc, #32]	; (3113b0 <draw_test_guard+0x24>)
  311390:	681a      	ldr	r2, [r3, #0]
  311392:	7811      	ldrb	r1, [r2, #0]
  311394:	4a07      	ldr	r2, [pc, #28]	; (3113b4 <draw_test_guard+0x28>)
  311396:	6812      	ldr	r2, [r2, #0]
  311398:	7b52      	ldrb	r2, [r2, #13]
  31139a:	2400      	movs	r4, #0
  31139c:	428a      	cmp	r2, r1
  31139e:	d104      	bne.n	3113aa <draw_test_guard+0x1e>
  3113a0:	685b      	ldr	r3, [r3, #4]
  3113a2:	781b      	ldrb	r3, [r3, #0]
  3113a4:	1a98      	subs	r0, r3, r2
  3113a6:	4244      	negs	r4, r0
  3113a8:	4144      	adcs	r4, r0
  3113aa:	0020      	movs	r0, r4
  3113ac:	bd10      	pop	{r4, pc}
  3113ae:	46c0      	nop			; (mov r8, r8)
  3113b0:	0032e440 	.word	0x0032e440
  3113b4:	0032866c 	.word	0x0032866c

003113b8 <draw_suspend>:
  3113b8:	b510      	push	{r4, lr}
  3113ba:	0004      	movs	r4, r0
  3113bc:	f012 fcd2 	bl	323d64 <__get_tick_count_from_thumb>
  3113c0:	1900      	adds	r0, r0, r4
  3113c2:	4b03      	ldr	r3, [pc, #12]	; (3113d0 <draw_suspend+0x18>)
  3113c4:	681a      	ldr	r2, [r3, #0]
  3113c6:	4290      	cmp	r0, r2
  3113c8:	dd00      	ble.n	3113cc <draw_suspend+0x14>
  3113ca:	6018      	str	r0, [r3, #0]
  3113cc:	bd10      	pop	{r4, pc}
  3113ce:	46c0      	nop			; (mov r8, r8)
  3113d0:	00331108 	.word	0x00331108

003113d4 <draw_is_suspended>:
  3113d4:	b510      	push	{r4, lr}
  3113d6:	f012 fcc5 	bl	323d64 <__get_tick_count_from_thumb>
  3113da:	2301      	movs	r3, #1
  3113dc:	4a03      	ldr	r2, [pc, #12]	; (3113ec <draw_is_suspended+0x18>)
  3113de:	6812      	ldr	r2, [r2, #0]
  3113e0:	4290      	cmp	r0, r2
  3113e2:	db00      	blt.n	3113e6 <draw_is_suspended+0x12>
  3113e4:	2300      	movs	r3, #0
  3113e6:	0018      	movs	r0, r3
  3113e8:	bd10      	pop	{r4, pc}
  3113ea:	46c0      	nop			; (mov r8, r8)
  3113ec:	00331108 	.word	0x00331108

003113f0 <draw_restore>:
  3113f0:	b510      	push	{r4, lr}
  3113f2:	f7ff ffef 	bl	3113d4 <draw_is_suspended>
  3113f6:	2800      	cmp	r0, #0
  3113f8:	d103      	bne.n	311402 <draw_restore+0x12>
  3113fa:	f012 fcc9 	bl	323d90 <__vid_bitmap_refresh_from_thumb>
  3113fe:	f7ff ffb5 	bl	31136c <draw_set_guard>
  311402:	bd10      	pop	{r4, pc}

00311404 <draw_set_draw_proc>:
  311404:	4b0b      	ldr	r3, [pc, #44]	; (311434 <draw_set_draw_proc+0x30>)
  311406:	2800      	cmp	r0, #0
  311408:	d000      	beq.n	31140c <draw_set_draw_proc+0x8>
  31140a:	0003      	movs	r3, r0
  31140c:	4a0a      	ldr	r2, [pc, #40]	; (311438 <draw_set_draw_proc+0x34>)
  31140e:	6013      	str	r3, [r2, #0]
  311410:	4a0a      	ldr	r2, [pc, #40]	; (31143c <draw_set_draw_proc+0x38>)
  311412:	6e92      	ldr	r2, [r2, #104]	; 0x68
  311414:	490a      	ldr	r1, [pc, #40]	; (311440 <draw_set_draw_proc+0x3c>)
  311416:	2a00      	cmp	r2, #0
  311418:	d00a      	beq.n	311430 <draw_set_draw_proc+0x2c>
  31141a:	4a0a      	ldr	r2, [pc, #40]	; (311444 <draw_set_draw_proc+0x40>)
  31141c:	6853      	ldr	r3, [r2, #4]
  31141e:	3b01      	subs	r3, #1
  311420:	6910      	ldr	r0, [r2, #16]
  311422:	4358      	muls	r0, r3
  311424:	6812      	ldr	r2, [r2, #0]
  311426:	1883      	adds	r3, r0, r2
  311428:	3b01      	subs	r3, #1
  31142a:	4a07      	ldr	r2, [pc, #28]	; (311448 <draw_set_draw_proc+0x44>)
  31142c:	6013      	str	r3, [r2, #0]
  31142e:	4b07      	ldr	r3, [pc, #28]	; (31144c <draw_set_draw_proc+0x48>)
  311430:	600b      	str	r3, [r1, #0]
  311432:	4770      	bx	lr
  311434:	00311315 	.word	0x00311315
  311438:	0033110c 	.word	0x0033110c
  31143c:	0033111c 	.word	0x0033111c
  311440:	00331104 	.word	0x00331104
  311444:	0032b870 	.word	0x0032b870
  311448:	00331110 	.word	0x00331110
  31144c:	00311325 	.word	0x00311325

00311450 <draw_init>:
  311450:	b510      	push	{r4, lr}
  311452:	f012 fbef 	bl	323c34 <__vid_get_bitmap_fb_from_thumb>
  311456:	4a06      	ldr	r2, [pc, #24]	; (311470 <draw_init+0x20>)
  311458:	6010      	str	r0, [r2, #0]
  31145a:	4b06      	ldr	r3, [pc, #24]	; (311474 <draw_init+0x24>)
  31145c:	699b      	ldr	r3, [r3, #24]
  31145e:	18c0      	adds	r0, r0, r3
  311460:	6050      	str	r0, [r2, #4]
  311462:	2000      	movs	r0, #0
  311464:	f7ff ffce 	bl	311404 <draw_set_draw_proc>
  311468:	f7ff ff80 	bl	31136c <draw_set_guard>
  31146c:	bd10      	pop	{r4, pc}
  31146e:	46c0      	nop			; (mov r8, r8)
  311470:	0032e440 	.word	0x0032e440
  311474:	0032b870 	.word	0x0032b870

00311478 <update_draw_proc>:
  311478:	b510      	push	{r4, lr}
  31147a:	4b02      	ldr	r3, [pc, #8]	; (311484 <update_draw_proc+0xc>)
  31147c:	6818      	ldr	r0, [r3, #0]
  31147e:	f7ff ffc1 	bl	311404 <draw_set_draw_proc>
  311482:	bd10      	pop	{r4, pc}
  311484:	0033110c 	.word	0x0033110c

00311488 <draw_pixel>:
  311488:	b570      	push	{r4, r5, r6, lr}
  31148a:	000d      	movs	r5, r1
  31148c:	2800      	cmp	r0, #0
  31148e:	db13      	blt.n	3114b8 <draw_pixel+0x30>
  311490:	2900      	cmp	r1, #0
  311492:	db11      	blt.n	3114b8 <draw_pixel+0x30>
  311494:	4c09      	ldr	r4, [pc, #36]	; (3114bc <draw_pixel+0x34>)
  311496:	6823      	ldr	r3, [r4, #0]
  311498:	4298      	cmp	r0, r3
  31149a:	da0d      	bge.n	3114b8 <draw_pixel+0x30>
  31149c:	6863      	ldr	r3, [r4, #4]
  31149e:	4299      	cmp	r1, r3
  3114a0:	da0a      	bge.n	3114b8 <draw_pixel+0x30>
  3114a2:	0001      	movs	r1, r0
  3114a4:	4329      	orrs	r1, r5
  3114a6:	d007      	beq.n	3114b8 <draw_pixel+0x30>
  3114a8:	6921      	ldr	r1, [r4, #16]
  3114aa:	002b      	movs	r3, r5
  3114ac:	434b      	muls	r3, r1
  3114ae:	1818      	adds	r0, r3, r0
  3114b0:	4b03      	ldr	r3, [pc, #12]	; (3114c0 <draw_pixel+0x38>)
  3114b2:	681b      	ldr	r3, [r3, #0]
  3114b4:	0011      	movs	r1, r2
  3114b6:	4798      	blx	r3
  3114b8:	bd70      	pop	{r4, r5, r6, pc}
  3114ba:	46c0      	nop			; (mov r8, r8)
  3114bc:	0032b870 	.word	0x0032b870
  3114c0:	00331104 	.word	0x00331104

003114c4 <color_to_rawpx>:
  3114c4:	2000      	movs	r0, #0
  3114c6:	4770      	bx	lr

003114c8 <draw_dblpixel_raw>:
  3114c8:	4770      	bx	lr

003114ca <erase_zebra>:
  3114ca:	4770      	bx	lr

003114cc <draw_or_erase_edge_pixel>:
  3114cc:	b570      	push	{r4, r5, r6, lr}
  3114ce:	000d      	movs	r5, r1
  3114d0:	0001      	movs	r1, r0
  3114d2:	4329      	orrs	r1, r5
  3114d4:	d01a      	beq.n	31150c <draw_or_erase_edge_pixel+0x40>
  3114d6:	2800      	cmp	r0, #0
  3114d8:	db18      	blt.n	31150c <draw_or_erase_edge_pixel+0x40>
  3114da:	2d00      	cmp	r5, #0
  3114dc:	db16      	blt.n	31150c <draw_or_erase_edge_pixel+0x40>
  3114de:	490c      	ldr	r1, [pc, #48]	; (311510 <draw_or_erase_edge_pixel+0x44>)
  3114e0:	680c      	ldr	r4, [r1, #0]
  3114e2:	42a0      	cmp	r0, r4
  3114e4:	da12      	bge.n	31150c <draw_or_erase_edge_pixel+0x40>
  3114e6:	684c      	ldr	r4, [r1, #4]
  3114e8:	42a5      	cmp	r5, r4
  3114ea:	da0f      	bge.n	31150c <draw_or_erase_edge_pixel+0x40>
  3114ec:	6909      	ldr	r1, [r1, #16]
  3114ee:	002c      	movs	r4, r5
  3114f0:	434c      	muls	r4, r1
  3114f2:	1820      	adds	r0, r4, r0
  3114f4:	2b00      	cmp	r3, #0
  3114f6:	d105      	bne.n	311504 <draw_or_erase_edge_pixel+0x38>
  3114f8:	4906      	ldr	r1, [pc, #24]	; (311514 <draw_or_erase_edge_pixel+0x48>)
  3114fa:	6809      	ldr	r1, [r1, #0]
  3114fc:	5c09      	ldrb	r1, [r1, r0]
  3114fe:	4291      	cmp	r1, r2
  311500:	d104      	bne.n	31150c <draw_or_erase_edge_pixel+0x40>
  311502:	001a      	movs	r2, r3
  311504:	4b04      	ldr	r3, [pc, #16]	; (311518 <draw_or_erase_edge_pixel+0x4c>)
  311506:	681b      	ldr	r3, [r3, #0]
  311508:	0011      	movs	r1, r2
  31150a:	4798      	blx	r3
  31150c:	bd70      	pop	{r4, r5, r6, pc}
  31150e:	46c0      	nop			; (mov r8, r8)
  311510:	0032b870 	.word	0x0032b870
  311514:	0032e440 	.word	0x0032e440
  311518:	0033110c 	.word	0x0033110c

0031151c <set_palette>:
  31151c:	4b05      	ldr	r3, [pc, #20]	; (311534 <set_palette+0x18>)
  31151e:	33e4      	adds	r3, #228	; 0xe4
  311520:	681a      	ldr	r2, [r3, #0]
  311522:	4b05      	ldr	r3, [pc, #20]	; (311538 <set_palette+0x1c>)
  311524:	2a00      	cmp	r2, #0
  311526:	d001      	beq.n	31152c <set_palette+0x10>
  311528:	4a04      	ldr	r2, [pc, #16]	; (31153c <set_palette+0x20>)
  31152a:	e000      	b.n	31152e <set_palette+0x12>
  31152c:	4a04      	ldr	r2, [pc, #16]	; (311540 <set_palette+0x24>)
  31152e:	601a      	str	r2, [r3, #0]
  311530:	4770      	bx	lr
  311532:	46c0      	nop			; (mov r8, r8)
  311534:	0032b718 	.word	0x0032b718
  311538:	0032866c 	.word	0x0032866c
  31153c:	0032e3c8 	.word	0x0032e3c8
  311540:	0032e3dc 	.word	0x0032e3dc

00311544 <get_script_color>:
  311544:	22ff      	movs	r2, #255	; 0xff
  311546:	0001      	movs	r1, r0
  311548:	4391      	bics	r1, r2
  31154a:	0603      	lsls	r3, r0, #24
  31154c:	0e1b      	lsrs	r3, r3, #24
  31154e:	2900      	cmp	r1, #0
  311550:	d007      	beq.n	311562 <get_script_color+0x1e>
  311552:	4010      	ands	r0, r2
  311554:	4b04      	ldr	r3, [pc, #16]	; (311568 <get_script_color+0x24>)
  311556:	681b      	ldr	r3, [r3, #0]
  311558:	2813      	cmp	r0, #19
  31155a:	dc01      	bgt.n	311560 <get_script_color+0x1c>
  31155c:	5c1b      	ldrb	r3, [r3, r0]
  31155e:	e000      	b.n	311562 <get_script_color+0x1e>
  311560:	781b      	ldrb	r3, [r3, #0]
  311562:	0018      	movs	r0, r3
  311564:	4770      	bx	lr
  311566:	46c0      	nop			; (mov r8, r8)
  311568:	0032866c 	.word	0x0032866c

0031156c <chdkColorToCanonColor>:
  31156c:	b082      	sub	sp, #8
  31156e:	1c03      	adds	r3, r0, #0
  311570:	0402      	lsls	r2, r0, #16
  311572:	0c12      	lsrs	r2, r2, #16
  311574:	a901      	add	r1, sp, #4
  311576:	8008      	strh	r0, [r1, #0]
  311578:	0a12      	lsrs	r2, r2, #8
  31157a:	0618      	lsls	r0, r3, #24
  31157c:	0e00      	lsrs	r0, r0, #24
  31157e:	2a00      	cmp	r2, #0
  311580:	d002      	beq.n	311588 <chdkColorToCanonColor+0x1c>
  311582:	4b02      	ldr	r3, [pc, #8]	; (31158c <chdkColorToCanonColor+0x20>)
  311584:	681b      	ldr	r3, [r3, #0]
  311586:	5c18      	ldrb	r0, [r3, r0]
  311588:	b002      	add	sp, #8
  31158a:	4770      	bx	lr
  31158c:	0032866c 	.word	0x0032866c

00311590 <user_color>:
  311590:	b513      	push	{r0, r1, r4, lr}
  311592:	9001      	str	r0, [sp, #4]
  311594:	f7ff ffea 	bl	31156c <chdkColorToCanonColor>
  311598:	0004      	movs	r4, r0
  31159a:	466b      	mov	r3, sp
  31159c:	88d8      	ldrh	r0, [r3, #6]
  31159e:	f7ff ffe5 	bl	31156c <chdkColorToCanonColor>
  3115a2:	0200      	lsls	r0, r0, #8
  3115a4:	4320      	orrs	r0, r4
  3115a6:	0400      	lsls	r0, r0, #16
  3115a8:	0c00      	lsrs	r0, r0, #16
  3115aa:	bd16      	pop	{r1, r2, r4, pc}

003115ac <draw_line>:
  3115ac:	b5f0      	push	{r4, r5, r6, r7, lr}
  3115ae:	b087      	sub	sp, #28
  3115b0:	0004      	movs	r4, r0
  3115b2:	000d      	movs	r5, r1
  3115b4:	0017      	movs	r7, r2
  3115b6:	aa0c      	add	r2, sp, #48	; 0x30
  3115b8:	7812      	ldrb	r2, [r2, #0]
  3115ba:	9203      	str	r2, [sp, #12]
  3115bc:	1a5a      	subs	r2, r3, r1
  3115be:	17d1      	asrs	r1, r2, #31
  3115c0:	1852      	adds	r2, r2, r1
  3115c2:	404a      	eors	r2, r1
  3115c4:	9200      	str	r2, [sp, #0]
  3115c6:	1a3a      	subs	r2, r7, r0
  3115c8:	17d1      	asrs	r1, r2, #31
  3115ca:	1852      	adds	r2, r2, r1
  3115cc:	404a      	eors	r2, r1
  3115ce:	9201      	str	r2, [sp, #4]
  3115d0:	9a00      	ldr	r2, [sp, #0]
  3115d2:	9901      	ldr	r1, [sp, #4]
  3115d4:	428a      	cmp	r2, r1
  3115d6:	dd07      	ble.n	3115e8 <draw_line+0x3c>
  3115d8:	406c      	eors	r4, r5
  3115da:	4065      	eors	r5, r4
  3115dc:	406c      	eors	r4, r5
  3115de:	003a      	movs	r2, r7
  3115e0:	405a      	eors	r2, r3
  3115e2:	4053      	eors	r3, r2
  3115e4:	405a      	eors	r2, r3
  3115e6:	0017      	movs	r7, r2
  3115e8:	42bc      	cmp	r4, r7
  3115ea:	dd05      	ble.n	3115f8 <draw_line+0x4c>
  3115ec:	407c      	eors	r4, r7
  3115ee:	4067      	eors	r7, r4
  3115f0:	407c      	eors	r4, r7
  3115f2:	405d      	eors	r5, r3
  3115f4:	406b      	eors	r3, r5
  3115f6:	405d      	eors	r5, r3
  3115f8:	1b3a      	subs	r2, r7, r4
  3115fa:	9202      	str	r2, [sp, #8]
  3115fc:	1b5a      	subs	r2, r3, r5
  3115fe:	17d1      	asrs	r1, r2, #31
  311600:	1852      	adds	r2, r2, r1
  311602:	404a      	eors	r2, r1
  311604:	9205      	str	r2, [sp, #20]
  311606:	17ee      	asrs	r6, r5, #31
  311608:	0fda      	lsrs	r2, r3, #31
  31160a:	429d      	cmp	r5, r3
  31160c:	4156      	adcs	r6, r2
  31160e:	4276      	negs	r6, r6
  311610:	2301      	movs	r3, #1
  311612:	4333      	orrs	r3, r6
  311614:	9304      	str	r3, [sp, #16]
  311616:	2600      	movs	r6, #0
  311618:	42a7      	cmp	r7, r4
  31161a:	db17      	blt.n	31164c <draw_line+0xa0>
  31161c:	9b00      	ldr	r3, [sp, #0]
  31161e:	9a01      	ldr	r2, [sp, #4]
  311620:	4293      	cmp	r3, r2
  311622:	dd03      	ble.n	31162c <draw_line+0x80>
  311624:	9a03      	ldr	r2, [sp, #12]
  311626:	0021      	movs	r1, r4
  311628:	0028      	movs	r0, r5
  31162a:	e002      	b.n	311632 <draw_line+0x86>
  31162c:	9a03      	ldr	r2, [sp, #12]
  31162e:	0029      	movs	r1, r5
  311630:	0020      	movs	r0, r4
  311632:	f7ff ff29 	bl	311488 <draw_pixel>
  311636:	9b05      	ldr	r3, [sp, #20]
  311638:	18f6      	adds	r6, r6, r3
  31163a:	0073      	lsls	r3, r6, #1
  31163c:	9a02      	ldr	r2, [sp, #8]
  31163e:	429a      	cmp	r2, r3
  311640:	dc02      	bgt.n	311648 <draw_line+0x9c>
  311642:	9b04      	ldr	r3, [sp, #16]
  311644:	18ed      	adds	r5, r5, r3
  311646:	1ab6      	subs	r6, r6, r2
  311648:	3401      	adds	r4, #1
  31164a:	e7e5      	b.n	311618 <draw_line+0x6c>
  31164c:	b007      	add	sp, #28
  31164e:	bdf0      	pop	{r4, r5, r6, r7, pc}

00311650 <draw_hline>:
  311650:	b5f8      	push	{r3, r4, r5, r6, r7, lr}
  311652:	0014      	movs	r4, r2
  311654:	001d      	movs	r5, r3
  311656:	2900      	cmp	r1, #0
  311658:	db2f      	blt.n	3116ba <draw_hline+0x6a>
  31165a:	4a18      	ldr	r2, [pc, #96]	; (3116bc <draw_hline+0x6c>)
  31165c:	6813      	ldr	r3, [r2, #0]
  31165e:	4283      	cmp	r3, r0
  311660:	dd2b      	ble.n	3116ba <draw_hline+0x6a>
  311662:	6856      	ldr	r6, [r2, #4]
  311664:	42b1      	cmp	r1, r6
  311666:	da28      	bge.n	3116ba <draw_hline+0x6a>
  311668:	2800      	cmp	r0, #0
  31166a:	da01      	bge.n	311670 <draw_hline+0x20>
  31166c:	1824      	adds	r4, r4, r0
  31166e:	2000      	movs	r0, #0
  311670:	1907      	adds	r7, r0, r4
  311672:	42bb      	cmp	r3, r7
  311674:	da00      	bge.n	311678 <draw_hline+0x28>
  311676:	1a1c      	subs	r4, r3, r0
  311678:	4f11      	ldr	r7, [pc, #68]	; (3116c0 <draw_hline+0x70>)
  31167a:	6ebf      	ldr	r7, [r7, #104]	; 0x68
  31167c:	2f00      	cmp	r7, #0
  31167e:	d009      	beq.n	311694 <draw_hline+0x44>
  311680:	3e01      	subs	r6, #1
  311682:	42b1      	cmp	r1, r6
  311684:	d10b      	bne.n	31169e <draw_hline+0x4e>
  311686:	1906      	adds	r6, r0, r4
  311688:	3b01      	subs	r3, #1
  31168a:	429e      	cmp	r6, r3
  31168c:	db07      	blt.n	31169e <draw_hline+0x4e>
  31168e:	3801      	subs	r0, #1
  311690:	3c01      	subs	r4, #1
  311692:	e004      	b.n	31169e <draw_hline+0x4e>
  311694:	0003      	movs	r3, r0
  311696:	430b      	orrs	r3, r1
  311698:	d101      	bne.n	31169e <draw_hline+0x4e>
  31169a:	3c01      	subs	r4, #1
  31169c:	2001      	movs	r0, #1
  31169e:	6916      	ldr	r6, [r2, #16]
  3116a0:	434e      	muls	r6, r1
  3116a2:	1836      	adds	r6, r6, r0
  3116a4:	0027      	movs	r7, r4
  3116a6:	19a0      	adds	r0, r4, r6
  3116a8:	1bc0      	subs	r0, r0, r7
  3116aa:	2f00      	cmp	r7, #0
  3116ac:	dd05      	ble.n	3116ba <draw_hline+0x6a>
  3116ae:	4b05      	ldr	r3, [pc, #20]	; (3116c4 <draw_hline+0x74>)
  3116b0:	681b      	ldr	r3, [r3, #0]
  3116b2:	0029      	movs	r1, r5
  3116b4:	4798      	blx	r3
  3116b6:	3f01      	subs	r7, #1
  3116b8:	e7f5      	b.n	3116a6 <draw_hline+0x56>
  3116ba:	bdf8      	pop	{r3, r4, r5, r6, r7, pc}
  3116bc:	0032b870 	.word	0x0032b870
  3116c0:	0033111c 	.word	0x0033111c
  3116c4:	00331104 	.word	0x00331104

003116c8 <draw_vline>:
  3116c8:	b5f8      	push	{r3, r4, r5, r6, r7, lr}
  3116ca:	0014      	movs	r4, r2
  3116cc:	001e      	movs	r6, r3
  3116ce:	2800      	cmp	r0, #0
  3116d0:	db1c      	blt.n	31170c <draw_vline+0x44>
  3116d2:	4d0f      	ldr	r5, [pc, #60]	; (311710 <draw_vline+0x48>)
  3116d4:	682b      	ldr	r3, [r5, #0]
  3116d6:	4298      	cmp	r0, r3
  3116d8:	da18      	bge.n	31170c <draw_vline+0x44>
  3116da:	686b      	ldr	r3, [r5, #4]
  3116dc:	428b      	cmp	r3, r1
  3116de:	dd15      	ble.n	31170c <draw_vline+0x44>
  3116e0:	2900      	cmp	r1, #0
  3116e2:	da01      	bge.n	3116e8 <draw_vline+0x20>
  3116e4:	1854      	adds	r4, r2, r1
  3116e6:	2100      	movs	r1, #0
  3116e8:	190a      	adds	r2, r1, r4
  3116ea:	4293      	cmp	r3, r2
  3116ec:	da00      	bge.n	3116f0 <draw_vline+0x28>
  3116ee:	1a5c      	subs	r4, r3, r1
  3116f0:	692b      	ldr	r3, [r5, #16]
  3116f2:	434b      	muls	r3, r1
  3116f4:	181f      	adds	r7, r3, r0
  3116f6:	2c00      	cmp	r4, #0
  3116f8:	dd08      	ble.n	31170c <draw_vline+0x44>
  3116fa:	4b06      	ldr	r3, [pc, #24]	; (311714 <draw_vline+0x4c>)
  3116fc:	681b      	ldr	r3, [r3, #0]
  3116fe:	0031      	movs	r1, r6
  311700:	0038      	movs	r0, r7
  311702:	4798      	blx	r3
  311704:	3c01      	subs	r4, #1
  311706:	692b      	ldr	r3, [r5, #16]
  311708:	18ff      	adds	r7, r7, r3
  31170a:	e7f4      	b.n	3116f6 <draw_vline+0x2e>
  31170c:	bdf8      	pop	{r3, r4, r5, r6, r7, pc}
  31170e:	46c0      	nop			; (mov r8, r8)
  311710:	0032b870 	.word	0x0032b870
  311714:	00331104 	.word	0x00331104

00311718 <draw_rectangle>:
  311718:	b5f0      	push	{r4, r5, r6, r7, lr}
  31171a:	b08f      	sub	sp, #60	; 0x3c
  31171c:	9000      	str	r0, [sp, #0]
  31171e:	9101      	str	r1, [sp, #4]
  311720:	0014      	movs	r4, r2
  311722:	001f      	movs	r7, r3
  311724:	ab14      	add	r3, sp, #80	; 0x50
  311726:	881b      	ldrh	r3, [r3, #0]
  311728:	930b      	str	r3, [sp, #44]	; 0x2c
  31172a:	0003      	movs	r3, r0
  31172c:	4290      	cmp	r0, r2
  31172e:	dd03      	ble.n	311738 <draw_rectangle+0x20>
  311730:	4053      	eors	r3, r2
  311732:	405c      	eors	r4, r3
  311734:	4063      	eors	r3, r4
  311736:	9300      	str	r3, [sp, #0]
  311738:	9b01      	ldr	r3, [sp, #4]
  31173a:	42bb      	cmp	r3, r7
  31173c:	dd04      	ble.n	311748 <draw_rectangle+0x30>
  31173e:	001e      	movs	r6, r3
  311740:	407e      	eors	r6, r7
  311742:	4077      	eors	r7, r6
  311744:	407e      	eors	r6, r7
  311746:	9601      	str	r6, [sp, #4]
  311748:	2c00      	cmp	r4, #0
  31174a:	da00      	bge.n	31174e <draw_rectangle+0x36>
  31174c:	e0b8      	b.n	3118c0 <draw_rectangle+0x1a8>
  31174e:	2f00      	cmp	r7, #0
  311750:	da00      	bge.n	311754 <draw_rectangle+0x3c>
  311752:	e0b5      	b.n	3118c0 <draw_rectangle+0x1a8>
  311754:	4b5b      	ldr	r3, [pc, #364]	; (3118c4 <draw_rectangle+0x1ac>)
  311756:	9a00      	ldr	r2, [sp, #0]
  311758:	6819      	ldr	r1, [r3, #0]
  31175a:	428a      	cmp	r2, r1
  31175c:	db00      	blt.n	311760 <draw_rectangle+0x48>
  31175e:	e0af      	b.n	3118c0 <draw_rectangle+0x1a8>
  311760:	685b      	ldr	r3, [r3, #4]
  311762:	9a01      	ldr	r2, [sp, #4]
  311764:	429a      	cmp	r2, r3
  311766:	db00      	blt.n	31176a <draw_rectangle+0x52>
  311768:	e0aa      	b.n	3118c0 <draw_rectangle+0x1a8>
  31176a:	9b15      	ldr	r3, [sp, #84]	; 0x54
  31176c:	065b      	lsls	r3, r3, #25
  31176e:	0fdb      	lsrs	r3, r3, #31
  311770:	9305      	str	r3, [sp, #20]
  311772:	2330      	movs	r3, #48	; 0x30
  311774:	9a15      	ldr	r2, [sp, #84]	; 0x54
  311776:	421a      	tst	r2, r3
  311778:	d111      	bne.n	31179e <draw_rectangle+0x86>
  31177a:	2507      	movs	r5, #7
  31177c:	9b15      	ldr	r3, [sp, #84]	; 0x54
  31177e:	402b      	ands	r3, r5
  311780:	9303      	str	r3, [sp, #12]
  311782:	9b01      	ldr	r3, [sp, #4]
  311784:	1afb      	subs	r3, r7, r3
  311786:	9306      	str	r3, [sp, #24]
  311788:	9b00      	ldr	r3, [sp, #0]
  31178a:	1ae3      	subs	r3, r4, r3
  31178c:	9307      	str	r3, [sp, #28]
  31178e:	9b03      	ldr	r3, [sp, #12]
  311790:	9a00      	ldr	r2, [sp, #0]
  311792:	4694      	mov	ip, r2
  311794:	4463      	add	r3, ip
  311796:	930c      	str	r3, [sp, #48]	; 0x30
  311798:	9404      	str	r4, [sp, #16]
  31179a:	9202      	str	r2, [sp, #8]
  31179c:	e018      	b.n	3117d0 <draw_rectangle+0xb8>
  31179e:	9b15      	ldr	r3, [sp, #84]	; 0x54
  3117a0:	069e      	lsls	r6, r3, #26
  3117a2:	0fb6      	lsrs	r6, r6, #30
  3117a4:	1c65      	adds	r5, r4, #1
  3117a6:	1b2b      	subs	r3, r5, r4
  3117a8:	429e      	cmp	r6, r3
  3117aa:	dbe6      	blt.n	31177a <draw_rectangle+0x62>
  3117ac:	9b01      	ldr	r3, [sp, #4]
  3117ae:	1afa      	subs	r2, r7, r3
  3117b0:	1c59      	adds	r1, r3, #1
  3117b2:	23ff      	movs	r3, #255	; 0xff
  3117b4:	0028      	movs	r0, r5
  3117b6:	f7ff ff87 	bl	3116c8 <draw_vline>
  3117ba:	9b00      	ldr	r3, [sp, #0]
  3117bc:	1ae2      	subs	r2, r4, r3
  3117be:	1992      	adds	r2, r2, r6
  3117c0:	1b39      	subs	r1, r7, r4
  3117c2:	1949      	adds	r1, r1, r5
  3117c4:	1c58      	adds	r0, r3, #1
  3117c6:	23ff      	movs	r3, #255	; 0xff
  3117c8:	f7ff ff42 	bl	311650 <draw_hline>
  3117cc:	3501      	adds	r5, #1
  3117ce:	e7ea      	b.n	3117a6 <draw_rectangle+0x8e>
  3117d0:	1b3b      	subs	r3, r7, r4
  3117d2:	9a04      	ldr	r2, [sp, #16]
  3117d4:	189b      	adds	r3, r3, r2
  3117d6:	930d      	str	r3, [sp, #52]	; 0x34
  3117d8:	9b01      	ldr	r3, [sp, #4]
  3117da:	9a00      	ldr	r2, [sp, #0]
  3117dc:	1a9b      	subs	r3, r3, r2
  3117de:	9a02      	ldr	r2, [sp, #8]
  3117e0:	189b      	adds	r3, r3, r2
  3117e2:	930a      	str	r3, [sp, #40]	; 0x28
  3117e4:	0013      	movs	r3, r2
  3117e6:	9a0c      	ldr	r2, [sp, #48]	; 0x30
  3117e8:	4293      	cmp	r3, r2
  3117ea:	d03f      	beq.n	31186c <draw_rectangle+0x154>
  3117ec:	9b05      	ldr	r3, [sp, #20]
  3117ee:	005b      	lsls	r3, r3, #1
  3117f0:	9308      	str	r3, [sp, #32]
  3117f2:	9b0a      	ldr	r3, [sp, #40]	; 0x28
  3117f4:	9a08      	ldr	r2, [sp, #32]
  3117f6:	4694      	mov	ip, r2
  3117f8:	4463      	add	r3, ip
  3117fa:	9309      	str	r3, [sp, #36]	; 0x24
  3117fc:	9b05      	ldr	r3, [sp, #20]
  3117fe:	009d      	lsls	r5, r3, #2
  311800:	9b06      	ldr	r3, [sp, #24]
  311802:	1b5d      	subs	r5, r3, r5
  311804:	3501      	adds	r5, #1
  311806:	9b0b      	ldr	r3, [sp, #44]	; 0x2c
  311808:	061e      	lsls	r6, r3, #24
  31180a:	0e36      	lsrs	r6, r6, #24
  31180c:	0033      	movs	r3, r6
  31180e:	002a      	movs	r2, r5
  311810:	9909      	ldr	r1, [sp, #36]	; 0x24
  311812:	9802      	ldr	r0, [sp, #8]
  311814:	f7ff ff58 	bl	3116c8 <draw_vline>
  311818:	0033      	movs	r3, r6
  31181a:	002a      	movs	r2, r5
  31181c:	9909      	ldr	r1, [sp, #36]	; 0x24
  31181e:	9804      	ldr	r0, [sp, #16]
  311820:	f7ff ff52 	bl	3116c8 <draw_vline>
  311824:	9b02      	ldr	r3, [sp, #8]
  311826:	3301      	adds	r3, #1
  311828:	9302      	str	r3, [sp, #8]
  31182a:	9b05      	ldr	r3, [sp, #20]
  31182c:	9a02      	ldr	r2, [sp, #8]
  31182e:	4694      	mov	ip, r2
  311830:	4463      	add	r3, ip
  311832:	9305      	str	r3, [sp, #20]
  311834:	9b07      	ldr	r3, [sp, #28]
  311836:	9a08      	ldr	r2, [sp, #32]
  311838:	1a9d      	subs	r5, r3, r2
  31183a:	3d01      	subs	r5, #1
  31183c:	0033      	movs	r3, r6
  31183e:	002a      	movs	r2, r5
  311840:	990a      	ldr	r1, [sp, #40]	; 0x28
  311842:	9805      	ldr	r0, [sp, #20]
  311844:	f7ff ff04 	bl	311650 <draw_hline>
  311848:	0033      	movs	r3, r6
  31184a:	002a      	movs	r2, r5
  31184c:	990d      	ldr	r1, [sp, #52]	; 0x34
  31184e:	9805      	ldr	r0, [sp, #20]
  311850:	f7ff fefe 	bl	311650 <draw_hline>
  311854:	9b04      	ldr	r3, [sp, #16]
  311856:	3b01      	subs	r3, #1
  311858:	9304      	str	r3, [sp, #16]
  31185a:	9b06      	ldr	r3, [sp, #24]
  31185c:	3b02      	subs	r3, #2
  31185e:	9306      	str	r3, [sp, #24]
  311860:	9b07      	ldr	r3, [sp, #28]
  311862:	3b02      	subs	r3, #2
  311864:	9307      	str	r3, [sp, #28]
  311866:	2300      	movs	r3, #0
  311868:	9305      	str	r3, [sp, #20]
  31186a:	e7b1      	b.n	3117d0 <draw_rectangle+0xb8>
  31186c:	9b00      	ldr	r3, [sp, #0]
  31186e:	9a03      	ldr	r2, [sp, #12]
  311870:	4694      	mov	ip, r2
  311872:	4463      	add	r3, ip
  311874:	9a01      	ldr	r2, [sp, #4]
  311876:	4661      	mov	r1, ip
  311878:	4462      	add	r2, ip
  31187a:	0016      	movs	r6, r2
  31187c:	1a64      	subs	r4, r4, r1
  31187e:	1a7d      	subs	r5, r7, r1
  311880:	9a15      	ldr	r2, [sp, #84]	; 0x54
  311882:	0712      	lsls	r2, r2, #28
  311884:	d51c      	bpl.n	3118c0 <draw_rectangle+0x1a8>
  311886:	43df      	mvns	r7, r3
  311888:	17ff      	asrs	r7, r7, #31
  31188a:	401f      	ands	r7, r3
  31188c:	43f3      	mvns	r3, r6
  31188e:	17db      	asrs	r3, r3, #31
  311890:	401e      	ands	r6, r3
  311892:	4b0c      	ldr	r3, [pc, #48]	; (3118c4 <draw_rectangle+0x1ac>)
  311894:	681a      	ldr	r2, [r3, #0]
  311896:	42a2      	cmp	r2, r4
  311898:	dc00      	bgt.n	31189c <draw_rectangle+0x184>
  31189a:	1e54      	subs	r4, r2, #1
  31189c:	685b      	ldr	r3, [r3, #4]
  31189e:	42ab      	cmp	r3, r5
  3118a0:	dc00      	bgt.n	3118a4 <draw_rectangle+0x18c>
  3118a2:	1e5d      	subs	r5, r3, #1
  3118a4:	9b0b      	ldr	r3, [sp, #44]	; 0x2c
  3118a6:	0a1b      	lsrs	r3, r3, #8
  3118a8:	9300      	str	r3, [sp, #0]
  3118aa:	42b5      	cmp	r5, r6
  3118ac:	db08      	blt.n	3118c0 <draw_rectangle+0x1a8>
  3118ae:	1be2      	subs	r2, r4, r7
  3118b0:	3201      	adds	r2, #1
  3118b2:	9b00      	ldr	r3, [sp, #0]
  3118b4:	0031      	movs	r1, r6
  3118b6:	0038      	movs	r0, r7
  3118b8:	f7ff feca 	bl	311650 <draw_hline>
  3118bc:	3601      	adds	r6, #1
  3118be:	e7f4      	b.n	3118aa <draw_rectangle+0x192>
  3118c0:	b00f      	add	sp, #60	; 0x3c
  3118c2:	bdf0      	pop	{r4, r5, r6, r7, pc}
  3118c4:	0032b870 	.word	0x0032b870

003118c8 <draw_icon_cmds>:
  3118c8:	b5f0      	push	{r4, r5, r6, r7, lr}
  3118ca:	b087      	sub	sp, #28
  3118cc:	9004      	str	r0, [sp, #16]
  3118ce:	000e      	movs	r6, r1
  3118d0:	0014      	movs	r4, r2
  3118d2:	7865      	ldrb	r5, [r4, #1]
  3118d4:	78a1      	ldrb	r1, [r4, #2]
  3118d6:	78e3      	ldrb	r3, [r4, #3]
  3118d8:	9303      	str	r3, [sp, #12]
  3118da:	7927      	ldrb	r7, [r4, #4]
  3118dc:	4b25      	ldr	r3, [pc, #148]	; (311974 <draw_icon_cmds+0xac>)
  3118de:	681b      	ldr	r3, [r3, #0]
  3118e0:	79a0      	ldrb	r0, [r4, #6]
  3118e2:	5c18      	ldrb	r0, [r3, r0]
  3118e4:	9005      	str	r0, [sp, #20]
  3118e6:	7960      	ldrb	r0, [r4, #5]
  3118e8:	5c1b      	ldrb	r3, [r3, r0]
  3118ea:	7820      	ldrb	r0, [r4, #0]
  3118ec:	3801      	subs	r0, #1
  3118ee:	2806      	cmp	r0, #6
  3118f0:	d83e      	bhi.n	311970 <draw_icon_cmds+0xa8>
  3118f2:	1989      	adds	r1, r1, r6
  3118f4:	9a04      	ldr	r2, [sp, #16]
  3118f6:	18ad      	adds	r5, r5, r2
  3118f8:	f00f f850 	bl	32099c <__gnu_thumb1_case_uqi>
  3118fc:	180e0904 	.word	0x180e0904
  311900:	241e      	.short	0x241e
  311902:	2a          	.byte	0x2a
  311903:	00          	.byte	0x00
  311904:	9a03      	ldr	r2, [sp, #12]
  311906:	0028      	movs	r0, r5
  311908:	f7ff fea2 	bl	311650 <draw_hline>
  31190c:	e02e      	b.n	31196c <draw_icon_cmds+0xa4>
  31190e:	003a      	movs	r2, r7
  311910:	0028      	movs	r0, r5
  311912:	f7ff fed9 	bl	3116c8 <draw_vline>
  311916:	e029      	b.n	31196c <draw_icon_cmds+0xa4>
  311918:	19bf      	adds	r7, r7, r6
  31191a:	9a04      	ldr	r2, [sp, #16]
  31191c:	9803      	ldr	r0, [sp, #12]
  31191e:	1882      	adds	r2, r0, r2
  311920:	9300      	str	r3, [sp, #0]
  311922:	003b      	movs	r3, r7
  311924:	0028      	movs	r0, r5
  311926:	f7ff fe41 	bl	3115ac <draw_line>
  31192a:	e01f      	b.n	31196c <draw_icon_cmds+0xa4>
  31192c:	19bf      	adds	r7, r7, r6
  31192e:	9a04      	ldr	r2, [sp, #16]
  311930:	9803      	ldr	r0, [sp, #12]
  311932:	1882      	adds	r2, r0, r2
  311934:	2001      	movs	r0, #1
  311936:	e010      	b.n	31195a <draw_icon_cmds+0x92>
  311938:	19bf      	adds	r7, r7, r6
  31193a:	9a04      	ldr	r2, [sp, #16]
  31193c:	9803      	ldr	r0, [sp, #12]
  31193e:	1882      	adds	r2, r0, r2
  311940:	2009      	movs	r0, #9
  311942:	e00a      	b.n	31195a <draw_icon_cmds+0x92>
  311944:	19bf      	adds	r7, r7, r6
  311946:	9a04      	ldr	r2, [sp, #16]
  311948:	9803      	ldr	r0, [sp, #12]
  31194a:	1882      	adds	r2, r0, r2
  31194c:	2041      	movs	r0, #65	; 0x41
  31194e:	e004      	b.n	31195a <draw_icon_cmds+0x92>
  311950:	19bf      	adds	r7, r7, r6
  311952:	9a04      	ldr	r2, [sp, #16]
  311954:	9803      	ldr	r0, [sp, #12]
  311956:	1882      	adds	r2, r0, r2
  311958:	2049      	movs	r0, #73	; 0x49
  31195a:	9001      	str	r0, [sp, #4]
  31195c:	021b      	lsls	r3, r3, #8
  31195e:	9805      	ldr	r0, [sp, #20]
  311960:	4303      	orrs	r3, r0
  311962:	9300      	str	r3, [sp, #0]
  311964:	003b      	movs	r3, r7
  311966:	0028      	movs	r0, r5
  311968:	f7ff fed6 	bl	311718 <draw_rectangle>
  31196c:	3407      	adds	r4, #7
  31196e:	e7b0      	b.n	3118d2 <draw_icon_cmds+0xa>
  311970:	b007      	add	sp, #28
  311972:	bdf0      	pop	{r4, r5, r6, r7, pc}
  311974:	0032866c 	.word	0x0032866c

00311978 <draw_char>:
  311978:	b5f0      	push	{r4, r5, r6, r7, lr}
  31197a:	b08f      	sub	sp, #60	; 0x3c
  31197c:	9003      	str	r0, [sp, #12]
  31197e:	9104      	str	r1, [sp, #16]
  311980:	9309      	str	r3, [sp, #36]	; 0x24
  311982:	0a1b      	lsrs	r3, r3, #8
  311984:	9306      	str	r3, [sp, #24]
  311986:	021b      	lsls	r3, r3, #8
  311988:	9906      	ldr	r1, [sp, #24]
  31198a:	4319      	orrs	r1, r3
  31198c:	9107      	str	r1, [sp, #28]
  31198e:	a90d      	add	r1, sp, #52	; 0x34
  311990:	a80c      	add	r0, sp, #48	; 0x30
  311992:	f7ff fcd3 	bl	31133c <get_cdata>
  311996:	9008      	str	r0, [sp, #32]
  311998:	9b0c      	ldr	r3, [sp, #48]	; 0x30
  31199a:	2b00      	cmp	r3, #0
  31199c:	d00c      	beq.n	3119b8 <draw_char+0x40>
  31199e:	3b01      	subs	r3, #1
  3119a0:	9a04      	ldr	r2, [sp, #16]
  3119a2:	189b      	adds	r3, r3, r2
  3119a4:	9a03      	ldr	r2, [sp, #12]
  3119a6:	3207      	adds	r2, #7
  3119a8:	2108      	movs	r1, #8
  3119aa:	9101      	str	r1, [sp, #4]
  3119ac:	9907      	ldr	r1, [sp, #28]
  3119ae:	9100      	str	r1, [sp, #0]
  3119b0:	9904      	ldr	r1, [sp, #16]
  3119b2:	9803      	ldr	r0, [sp, #12]
  3119b4:	f7ff feb0 	bl	311718 <draw_rectangle>
  3119b8:	9f0c      	ldr	r7, [sp, #48]	; 0x30
  3119ba:	003d      	movs	r5, r7
  3119bc:	9b0d      	ldr	r3, [sp, #52]	; 0x34
  3119be:	429f      	cmp	r7, r3
  3119c0:	d232      	bcs.n	311a28 <draw_char+0xb0>
  3119c2:	9b08      	ldr	r3, [sp, #32]
  3119c4:	5d5c      	ldrb	r4, [r3, r5]
  3119c6:	2cf0      	cmp	r4, #240	; 0xf0
  3119c8:	d904      	bls.n	3119d4 <draw_char+0x5c>
  3119ca:	230f      	movs	r3, #15
  3119cc:	401c      	ands	r4, r3
  3119ce:	3401      	adds	r4, #1
  3119d0:	3501      	adds	r5, #1
  3119d2:	e001      	b.n	3119d8 <draw_char+0x60>
  3119d4:	09e4      	lsrs	r4, r4, #7
  3119d6:	3401      	adds	r4, #1
  3119d8:	9b08      	ldr	r3, [sp, #32]
  3119da:	5d5b      	ldrb	r3, [r3, r5]
  3119dc:	227f      	movs	r2, #127	; 0x7f
  3119de:	4013      	ands	r3, r2
  3119e0:	4a1a      	ldr	r2, [pc, #104]	; (311a4c <draw_char+0xd4>)
  3119e2:	5cd3      	ldrb	r3, [r2, r3]
  3119e4:	930a      	str	r3, [sp, #40]	; 0x28
  3119e6:	3501      	adds	r5, #1
  3119e8:	9405      	str	r4, [sp, #20]
  3119ea:	2600      	movs	r6, #0
  3119ec:	9b04      	ldr	r3, [sp, #16]
  3119ee:	19db      	adds	r3, r3, r7
  3119f0:	191b      	adds	r3, r3, r4
  3119f2:	9a05      	ldr	r2, [sp, #20]
  3119f4:	1a9b      	subs	r3, r3, r2
  3119f6:	930b      	str	r3, [sp, #44]	; 0x2c
  3119f8:	9b03      	ldr	r3, [sp, #12]
  3119fa:	1998      	adds	r0, r3, r6
  3119fc:	9a06      	ldr	r2, [sp, #24]
  3119fe:	2380      	movs	r3, #128	; 0x80
  311a00:	4133      	asrs	r3, r6
  311a02:	990a      	ldr	r1, [sp, #40]	; 0x28
  311a04:	4219      	tst	r1, r3
  311a06:	d002      	beq.n	311a0e <draw_char+0x96>
  311a08:	9b09      	ldr	r3, [sp, #36]	; 0x24
  311a0a:	061a      	lsls	r2, r3, #24
  311a0c:	0e12      	lsrs	r2, r2, #24
  311a0e:	990b      	ldr	r1, [sp, #44]	; 0x2c
  311a10:	f7ff fd3a 	bl	311488 <draw_pixel>
  311a14:	3601      	adds	r6, #1
  311a16:	2e08      	cmp	r6, #8
  311a18:	d1ee      	bne.n	3119f8 <draw_char+0x80>
  311a1a:	9b05      	ldr	r3, [sp, #20]
  311a1c:	3b01      	subs	r3, #1
  311a1e:	9305      	str	r3, [sp, #20]
  311a20:	2b00      	cmp	r3, #0
  311a22:	d1e2      	bne.n	3119ea <draw_char+0x72>
  311a24:	193f      	adds	r7, r7, r4
  311a26:	e7c9      	b.n	3119bc <draw_char+0x44>
  311a28:	2f0f      	cmp	r7, #15
  311a2a:	d80c      	bhi.n	311a46 <draw_char+0xce>
  311a2c:	9b04      	ldr	r3, [sp, #16]
  311a2e:	330f      	adds	r3, #15
  311a30:	9a03      	ldr	r2, [sp, #12]
  311a32:	3207      	adds	r2, #7
  311a34:	9904      	ldr	r1, [sp, #16]
  311a36:	19c9      	adds	r1, r1, r7
  311a38:	2008      	movs	r0, #8
  311a3a:	9001      	str	r0, [sp, #4]
  311a3c:	9807      	ldr	r0, [sp, #28]
  311a3e:	9000      	str	r0, [sp, #0]
  311a40:	9803      	ldr	r0, [sp, #12]
  311a42:	f7ff fe69 	bl	311718 <draw_rectangle>
  311a46:	b00f      	add	sp, #60	; 0x3c
  311a48:	bdf0      	pop	{r4, r5, r6, r7, pc}
  311a4a:	46c0      	nop			; (mov r8, r8)
  311a4c:	0032cda8 	.word	0x0032cda8

00311a50 <draw_char_scaled>:
  311a50:	b5f0      	push	{r4, r5, r6, r7, lr}
  311a52:	b093      	sub	sp, #76	; 0x4c
  311a54:	0005      	movs	r5, r0
  311a56:	000f      	movs	r7, r1
  311a58:	0619      	lsls	r1, r3, #24
  311a5a:	0e09      	lsrs	r1, r1, #24
  311a5c:	0209      	lsls	r1, r1, #8
  311a5e:	0618      	lsls	r0, r3, #24
  311a60:	0e00      	lsrs	r0, r0, #24
  311a62:	4301      	orrs	r1, r0
  311a64:	9108      	str	r1, [sp, #32]
  311a66:	0a1b      	lsrs	r3, r3, #8
  311a68:	0219      	lsls	r1, r3, #8
  311a6a:	4319      	orrs	r1, r3
  311a6c:	9105      	str	r1, [sp, #20]
  311a6e:	a911      	add	r1, sp, #68	; 0x44
  311a70:	a810      	add	r0, sp, #64	; 0x40
  311a72:	f7ff fc63 	bl	31133c <get_cdata>
  311a76:	9009      	str	r0, [sp, #36]	; 0x24
  311a78:	9b10      	ldr	r3, [sp, #64]	; 0x40
  311a7a:	2b00      	cmp	r3, #0
  311a7c:	d010      	beq.n	311aa0 <draw_char_scaled+0x50>
  311a7e:	9a19      	ldr	r2, [sp, #100]	; 0x64
  311a80:	435a      	muls	r2, r3
  311a82:	0013      	movs	r3, r2
  311a84:	1e7a      	subs	r2, r7, #1
  311a86:	189b      	adds	r3, r3, r2
  311a88:	9a18      	ldr	r2, [sp, #96]	; 0x60
  311a8a:	00d2      	lsls	r2, r2, #3
  311a8c:	1952      	adds	r2, r2, r5
  311a8e:	3a01      	subs	r2, #1
  311a90:	2108      	movs	r1, #8
  311a92:	9101      	str	r1, [sp, #4]
  311a94:	9905      	ldr	r1, [sp, #20]
  311a96:	9100      	str	r1, [sp, #0]
  311a98:	0039      	movs	r1, r7
  311a9a:	0028      	movs	r0, r5
  311a9c:	f7ff fe3c 	bl	311718 <draw_rectangle>
  311aa0:	9e10      	ldr	r6, [sp, #64]	; 0x40
  311aa2:	1e6b      	subs	r3, r5, #1
  311aa4:	930f      	str	r3, [sp, #60]	; 0x3c
  311aa6:	9b18      	ldr	r3, [sp, #96]	; 0x60
  311aa8:	00db      	lsls	r3, r3, #3
  311aaa:	1e6a      	subs	r2, r5, #1
  311aac:	189b      	adds	r3, r3, r2
  311aae:	930e      	str	r3, [sp, #56]	; 0x38
  311ab0:	9603      	str	r6, [sp, #12]
  311ab2:	9b11      	ldr	r3, [sp, #68]	; 0x44
  311ab4:	429e      	cmp	r6, r3
  311ab6:	d26b      	bcs.n	311b90 <draw_char_scaled+0x140>
  311ab8:	9b09      	ldr	r3, [sp, #36]	; 0x24
  311aba:	9a03      	ldr	r2, [sp, #12]
  311abc:	5c9b      	ldrb	r3, [r3, r2]
  311abe:	2bf0      	cmp	r3, #240	; 0xf0
  311ac0:	d907      	bls.n	311ad2 <draw_char_scaled+0x82>
  311ac2:	220f      	movs	r2, #15
  311ac4:	4013      	ands	r3, r2
  311ac6:	3301      	adds	r3, #1
  311ac8:	9304      	str	r3, [sp, #16]
  311aca:	9b03      	ldr	r3, [sp, #12]
  311acc:	3301      	adds	r3, #1
  311ace:	9303      	str	r3, [sp, #12]
  311ad0:	e002      	b.n	311ad8 <draw_char_scaled+0x88>
  311ad2:	09db      	lsrs	r3, r3, #7
  311ad4:	3301      	adds	r3, #1
  311ad6:	9304      	str	r3, [sp, #16]
  311ad8:	9b09      	ldr	r3, [sp, #36]	; 0x24
  311ada:	9a03      	ldr	r2, [sp, #12]
  311adc:	5c9b      	ldrb	r3, [r3, r2]
  311ade:	227f      	movs	r2, #127	; 0x7f
  311ae0:	4013      	ands	r3, r2
  311ae2:	4a36      	ldr	r2, [pc, #216]	; (311bbc <draw_char_scaled+0x16c>)
  311ae4:	5cd3      	ldrb	r3, [r2, r3]
  311ae6:	930a      	str	r3, [sp, #40]	; 0x28
  311ae8:	9b03      	ldr	r3, [sp, #12]
  311aea:	3301      	adds	r3, #1
  311aec:	9303      	str	r3, [sp, #12]
  311aee:	9a0a      	ldr	r2, [sp, #40]	; 0x28
  311af0:	237f      	movs	r3, #127	; 0x7f
  311af2:	439a      	bics	r2, r3
  311af4:	9b19      	ldr	r3, [sp, #100]	; 0x64
  311af6:	4373      	muls	r3, r6
  311af8:	19d9      	adds	r1, r3, r7
  311afa:	910b      	str	r1, [sp, #44]	; 0x2c
  311afc:	9904      	ldr	r1, [sp, #16]
  311afe:	9819      	ldr	r0, [sp, #100]	; 0x64
  311b00:	4341      	muls	r1, r0
  311b02:	1e78      	subs	r0, r7, #1
  311b04:	18c3      	adds	r3, r0, r3
  311b06:	930c      	str	r3, [sp, #48]	; 0x30
  311b08:	185b      	adds	r3, r3, r1
  311b0a:	930d      	str	r3, [sp, #52]	; 0x34
  311b0c:	9b18      	ldr	r3, [sp, #96]	; 0x60
  311b0e:	990f      	ldr	r1, [sp, #60]	; 0x3c
  311b10:	468c      	mov	ip, r1
  311b12:	4463      	add	r3, ip
  311b14:	9307      	str	r3, [sp, #28]
  311b16:	2001      	movs	r0, #1
  311b18:	0004      	movs	r4, r0
  311b1a:	9b0a      	ldr	r3, [sp, #40]	; 0x28
  311b1c:	40a3      	lsls	r3, r4
  311b1e:	2180      	movs	r1, #128	; 0x80
  311b20:	4019      	ands	r1, r3
  311b22:	9106      	str	r1, [sp, #24]
  311b24:	4291      	cmp	r1, r2
  311b26:	d011      	beq.n	311b4c <draw_char_scaled+0xfc>
  311b28:	1a20      	subs	r0, r4, r0
  311b2a:	9b18      	ldr	r3, [sp, #96]	; 0x60
  311b2c:	4343      	muls	r3, r0
  311b2e:	1958      	adds	r0, r3, r5
  311b30:	9b05      	ldr	r3, [sp, #20]
  311b32:	2a00      	cmp	r2, #0
  311b34:	d000      	beq.n	311b38 <draw_char_scaled+0xe8>
  311b36:	9b08      	ldr	r3, [sp, #32]
  311b38:	2208      	movs	r2, #8
  311b3a:	9201      	str	r2, [sp, #4]
  311b3c:	9300      	str	r3, [sp, #0]
  311b3e:	9b0d      	ldr	r3, [sp, #52]	; 0x34
  311b40:	9a07      	ldr	r2, [sp, #28]
  311b42:	990b      	ldr	r1, [sp, #44]	; 0x2c
  311b44:	f7ff fde8 	bl	311718 <draw_rectangle>
  311b48:	2001      	movs	r0, #1
  311b4a:	e000      	b.n	311b4e <draw_char_scaled+0xfe>
  311b4c:	3001      	adds	r0, #1
  311b4e:	3401      	adds	r4, #1
  311b50:	9b07      	ldr	r3, [sp, #28]
  311b52:	9a18      	ldr	r2, [sp, #96]	; 0x60
  311b54:	4694      	mov	ip, r2
  311b56:	4463      	add	r3, ip
  311b58:	9307      	str	r3, [sp, #28]
  311b5a:	9a06      	ldr	r2, [sp, #24]
  311b5c:	2c08      	cmp	r4, #8
  311b5e:	d1dc      	bne.n	311b1a <draw_char_scaled+0xca>
  311b60:	1a20      	subs	r0, r4, r0
  311b62:	4663      	mov	r3, ip
  311b64:	4343      	muls	r3, r0
  311b66:	1958      	adds	r0, r3, r5
  311b68:	9b19      	ldr	r3, [sp, #100]	; 0x64
  311b6a:	9a04      	ldr	r2, [sp, #16]
  311b6c:	4353      	muls	r3, r2
  311b6e:	9a0c      	ldr	r2, [sp, #48]	; 0x30
  311b70:	189b      	adds	r3, r3, r2
  311b72:	9a08      	ldr	r2, [sp, #32]
  311b74:	9906      	ldr	r1, [sp, #24]
  311b76:	2900      	cmp	r1, #0
  311b78:	d100      	bne.n	311b7c <draw_char_scaled+0x12c>
  311b7a:	9a05      	ldr	r2, [sp, #20]
  311b7c:	2108      	movs	r1, #8
  311b7e:	9101      	str	r1, [sp, #4]
  311b80:	9200      	str	r2, [sp, #0]
  311b82:	9a0e      	ldr	r2, [sp, #56]	; 0x38
  311b84:	990b      	ldr	r1, [sp, #44]	; 0x2c
  311b86:	f7ff fdc7 	bl	311718 <draw_rectangle>
  311b8a:	9b04      	ldr	r3, [sp, #16]
  311b8c:	18f6      	adds	r6, r6, r3
  311b8e:	e790      	b.n	311ab2 <draw_char_scaled+0x62>
  311b90:	2e0f      	cmp	r6, #15
  311b92:	d811      	bhi.n	311bb8 <draw_char_scaled+0x168>
  311b94:	9b19      	ldr	r3, [sp, #100]	; 0x64
  311b96:	011b      	lsls	r3, r3, #4
  311b98:	19db      	adds	r3, r3, r7
  311b9a:	3b01      	subs	r3, #1
  311b9c:	9a18      	ldr	r2, [sp, #96]	; 0x60
  311b9e:	00d2      	lsls	r2, r2, #3
  311ba0:	1952      	adds	r2, r2, r5
  311ba2:	3a01      	subs	r2, #1
  311ba4:	9919      	ldr	r1, [sp, #100]	; 0x64
  311ba6:	4371      	muls	r1, r6
  311ba8:	19c9      	adds	r1, r1, r7
  311baa:	2008      	movs	r0, #8
  311bac:	9001      	str	r0, [sp, #4]
  311bae:	9805      	ldr	r0, [sp, #20]
  311bb0:	9000      	str	r0, [sp, #0]
  311bb2:	0028      	movs	r0, r5
  311bb4:	f7ff fdb0 	bl	311718 <draw_rectangle>
  311bb8:	b013      	add	sp, #76	; 0x4c
  311bba:	bdf0      	pop	{r4, r5, r6, r7, pc}
  311bbc:	0032cda8 	.word	0x0032cda8

00311bc0 <draw_ellipse>:
  311bc0:	b5f0      	push	{r4, r5, r6, r7, lr}
  311bc2:	b08f      	sub	sp, #60	; 0x3c
  311bc4:	9004      	str	r0, [sp, #16]
  311bc6:	9102      	str	r1, [sp, #8]
  311bc8:	930c      	str	r3, [sp, #48]	; 0x30
  311bca:	ab14      	add	r3, sp, #80	; 0x50
  311bcc:	781f      	ldrb	r7, [r3, #0]
  311bce:	0013      	movs	r3, r2
  311bd0:	4353      	muls	r3, r2
  311bd2:	930b      	str	r3, [sp, #44]	; 0x2c
  311bd4:	005b      	lsls	r3, r3, #1
  311bd6:	9306      	str	r3, [sp, #24]
  311bd8:	9b0c      	ldr	r3, [sp, #48]	; 0x30
  311bda:	0019      	movs	r1, r3
  311bdc:	434b      	muls	r3, r1
  311bde:	9307      	str	r3, [sp, #28]
  311be0:	005b      	lsls	r3, r3, #1
  311be2:	9308      	str	r3, [sp, #32]
  311be4:	0014      	movs	r4, r2
  311be6:	0052      	lsls	r2, r2, #1
  311be8:	2301      	movs	r3, #1
  311bea:	1a9b      	subs	r3, r3, r2
  311bec:	9a07      	ldr	r2, [sp, #28]
  311bee:	435a      	muls	r2, r3
  311bf0:	9209      	str	r2, [sp, #36]	; 0x24
  311bf2:	9b0b      	ldr	r3, [sp, #44]	; 0x2c
  311bf4:	9305      	str	r3, [sp, #20]
  311bf6:	9b08      	ldr	r3, [sp, #32]
  311bf8:	4363      	muls	r3, r4
  311bfa:	930a      	str	r3, [sp, #40]	; 0x28
  311bfc:	9b02      	ldr	r3, [sp, #8]
  311bfe:	9303      	str	r3, [sp, #12]
  311c00:	001d      	movs	r5, r3
  311c02:	2300      	movs	r3, #0
  311c04:	9301      	str	r3, [sp, #4]
  311c06:	9b05      	ldr	r3, [sp, #20]
  311c08:	9a0b      	ldr	r2, [sp, #44]	; 0x2c
  311c0a:	1a9b      	subs	r3, r3, r2
  311c0c:	9a0a      	ldr	r2, [sp, #40]	; 0x28
  311c0e:	429a      	cmp	r2, r3
  311c10:	db4c      	blt.n	311cac <draw_ellipse+0xec>
  311c12:	9b04      	ldr	r3, [sp, #16]
  311c14:	1b1e      	subs	r6, r3, r4
  311c16:	9b15      	ldr	r3, [sp, #84]	; 0x54
  311c18:	2208      	movs	r2, #8
  311c1a:	4213      	tst	r3, r2
  311c1c:	d00f      	beq.n	311c3e <draw_ellipse+0x7e>
  311c1e:	0063      	lsls	r3, r4, #1
  311c20:	3301      	adds	r3, #1
  311c22:	930d      	str	r3, [sp, #52]	; 0x34
  311c24:	003b      	movs	r3, r7
  311c26:	9a0d      	ldr	r2, [sp, #52]	; 0x34
  311c28:	9903      	ldr	r1, [sp, #12]
  311c2a:	0030      	movs	r0, r6
  311c2c:	f7ff fd10 	bl	311650 <draw_hline>
  311c30:	003b      	movs	r3, r7
  311c32:	9a0d      	ldr	r2, [sp, #52]	; 0x34
  311c34:	0029      	movs	r1, r5
  311c36:	0030      	movs	r0, r6
  311c38:	f7ff fd0a 	bl	311650 <draw_hline>
  311c3c:	e015      	b.n	311c6a <draw_ellipse+0xaa>
  311c3e:	003a      	movs	r2, r7
  311c40:	9903      	ldr	r1, [sp, #12]
  311c42:	0030      	movs	r0, r6
  311c44:	f7ff fc20 	bl	311488 <draw_pixel>
  311c48:	003a      	movs	r2, r7
  311c4a:	0029      	movs	r1, r5
  311c4c:	0030      	movs	r0, r6
  311c4e:	f7ff fc1b 	bl	311488 <draw_pixel>
  311c52:	9b04      	ldr	r3, [sp, #16]
  311c54:	18e6      	adds	r6, r4, r3
  311c56:	003a      	movs	r2, r7
  311c58:	9903      	ldr	r1, [sp, #12]
  311c5a:	0030      	movs	r0, r6
  311c5c:	f7ff fc14 	bl	311488 <draw_pixel>
  311c60:	003a      	movs	r2, r7
  311c62:	0029      	movs	r1, r5
  311c64:	0030      	movs	r0, r6
  311c66:	f7ff fc0f 	bl	311488 <draw_pixel>
  311c6a:	9b01      	ldr	r3, [sp, #4]
  311c6c:	9a05      	ldr	r2, [sp, #20]
  311c6e:	4694      	mov	ip, r2
  311c70:	4463      	add	r3, ip
  311c72:	9301      	str	r3, [sp, #4]
  311c74:	0013      	movs	r3, r2
  311c76:	9a06      	ldr	r2, [sp, #24]
  311c78:	4694      	mov	ip, r2
  311c7a:	4463      	add	r3, ip
  311c7c:	9305      	str	r3, [sp, #20]
  311c7e:	9b01      	ldr	r3, [sp, #4]
  311c80:	005b      	lsls	r3, r3, #1
  311c82:	9a09      	ldr	r2, [sp, #36]	; 0x24
  311c84:	189b      	adds	r3, r3, r2
  311c86:	2b00      	cmp	r3, #0
  311c88:	dd0b      	ble.n	311ca2 <draw_ellipse+0xe2>
  311c8a:	3c01      	subs	r4, #1
  311c8c:	9a0a      	ldr	r2, [sp, #40]	; 0x28
  311c8e:	9908      	ldr	r1, [sp, #32]
  311c90:	1a52      	subs	r2, r2, r1
  311c92:	920a      	str	r2, [sp, #40]	; 0x28
  311c94:	9a01      	ldr	r2, [sp, #4]
  311c96:	1a9b      	subs	r3, r3, r2
  311c98:	9301      	str	r3, [sp, #4]
  311c9a:	9b09      	ldr	r3, [sp, #36]	; 0x24
  311c9c:	468c      	mov	ip, r1
  311c9e:	4463      	add	r3, ip
  311ca0:	9309      	str	r3, [sp, #36]	; 0x24
  311ca2:	9b03      	ldr	r3, [sp, #12]
  311ca4:	3b01      	subs	r3, #1
  311ca6:	9303      	str	r3, [sp, #12]
  311ca8:	3501      	adds	r5, #1
  311caa:	e7ac      	b.n	311c06 <draw_ellipse+0x46>
  311cac:	9c0c      	ldr	r4, [sp, #48]	; 0x30
  311cae:	9b07      	ldr	r3, [sp, #28]
  311cb0:	9305      	str	r3, [sp, #20]
  311cb2:	0062      	lsls	r2, r4, #1
  311cb4:	2301      	movs	r3, #1
  311cb6:	1a9b      	subs	r3, r3, r2
  311cb8:	9a0b      	ldr	r2, [sp, #44]	; 0x2c
  311cba:	435a      	muls	r2, r3
  311cbc:	9209      	str	r2, [sp, #36]	; 0x24
  311cbe:	9b06      	ldr	r3, [sp, #24]
  311cc0:	4363      	muls	r3, r4
  311cc2:	930a      	str	r3, [sp, #40]	; 0x28
  311cc4:	1c63      	adds	r3, r4, #1
  311cc6:	930b      	str	r3, [sp, #44]	; 0x2c
  311cc8:	2300      	movs	r3, #0
  311cca:	9303      	str	r3, [sp, #12]
  311ccc:	9301      	str	r3, [sp, #4]
  311cce:	9b05      	ldr	r3, [sp, #20]
  311cd0:	9a07      	ldr	r2, [sp, #28]
  311cd2:	1a9b      	subs	r3, r3, r2
  311cd4:	9a0a      	ldr	r2, [sp, #40]	; 0x28
  311cd6:	429a      	cmp	r2, r3
  311cd8:	db5c      	blt.n	311d94 <draw_ellipse+0x1d4>
  311cda:	9b15      	ldr	r3, [sp, #84]	; 0x54
  311cdc:	2208      	movs	r2, #8
  311cde:	4213      	tst	r3, r2
  311ce0:	d016      	beq.n	311d10 <draw_ellipse+0x150>
  311ce2:	9b0b      	ldr	r3, [sp, #44]	; 0x2c
  311ce4:	429c      	cmp	r4, r3
  311ce6:	d034      	beq.n	311d52 <draw_ellipse+0x192>
  311ce8:	9b04      	ldr	r3, [sp, #16]
  311cea:	9a01      	ldr	r2, [sp, #4]
  311cec:	1a9d      	subs	r5, r3, r2
  311cee:	0056      	lsls	r6, r2, #1
  311cf0:	3601      	adds	r6, #1
  311cf2:	9b02      	ldr	r3, [sp, #8]
  311cf4:	1b19      	subs	r1, r3, r4
  311cf6:	003b      	movs	r3, r7
  311cf8:	0032      	movs	r2, r6
  311cfa:	0028      	movs	r0, r5
  311cfc:	f7ff fca8 	bl	311650 <draw_hline>
  311d00:	9b02      	ldr	r3, [sp, #8]
  311d02:	18e1      	adds	r1, r4, r3
  311d04:	003b      	movs	r3, r7
  311d06:	0032      	movs	r2, r6
  311d08:	0028      	movs	r0, r5
  311d0a:	f7ff fca1 	bl	311650 <draw_hline>
  311d0e:	e020      	b.n	311d52 <draw_ellipse+0x192>
  311d10:	9b04      	ldr	r3, [sp, #16]
  311d12:	9a01      	ldr	r2, [sp, #4]
  311d14:	1a9b      	subs	r3, r3, r2
  311d16:	9a02      	ldr	r2, [sp, #8]
  311d18:	1b16      	subs	r6, r2, r4
  311d1a:	003a      	movs	r2, r7
  311d1c:	0031      	movs	r1, r6
  311d1e:	930c      	str	r3, [sp, #48]	; 0x30
  311d20:	0018      	movs	r0, r3
  311d22:	f7ff fbb1 	bl	311488 <draw_pixel>
  311d26:	9b02      	ldr	r3, [sp, #8]
  311d28:	18e5      	adds	r5, r4, r3
  311d2a:	003a      	movs	r2, r7
  311d2c:	0029      	movs	r1, r5
  311d2e:	980c      	ldr	r0, [sp, #48]	; 0x30
  311d30:	f7ff fbaa 	bl	311488 <draw_pixel>
  311d34:	9b01      	ldr	r3, [sp, #4]
  311d36:	9a04      	ldr	r2, [sp, #16]
  311d38:	189b      	adds	r3, r3, r2
  311d3a:	003a      	movs	r2, r7
  311d3c:	0031      	movs	r1, r6
  311d3e:	001e      	movs	r6, r3
  311d40:	0018      	movs	r0, r3
  311d42:	f7ff fba1 	bl	311488 <draw_pixel>
  311d46:	003a      	movs	r2, r7
  311d48:	0029      	movs	r1, r5
  311d4a:	0030      	movs	r0, r6
  311d4c:	f7ff fb9c 	bl	311488 <draw_pixel>
  311d50:	e000      	b.n	311d54 <draw_ellipse+0x194>
  311d52:	940b      	str	r4, [sp, #44]	; 0x2c
  311d54:	9b01      	ldr	r3, [sp, #4]
  311d56:	3301      	adds	r3, #1
  311d58:	9301      	str	r3, [sp, #4]
  311d5a:	9b03      	ldr	r3, [sp, #12]
  311d5c:	9a05      	ldr	r2, [sp, #20]
  311d5e:	4694      	mov	ip, r2
  311d60:	4463      	add	r3, ip
  311d62:	9303      	str	r3, [sp, #12]
  311d64:	0013      	movs	r3, r2
  311d66:	9a08      	ldr	r2, [sp, #32]
  311d68:	4694      	mov	ip, r2
  311d6a:	4463      	add	r3, ip
  311d6c:	9305      	str	r3, [sp, #20]
  311d6e:	9b03      	ldr	r3, [sp, #12]
  311d70:	005b      	lsls	r3, r3, #1
  311d72:	9a09      	ldr	r2, [sp, #36]	; 0x24
  311d74:	189b      	adds	r3, r3, r2
  311d76:	2b00      	cmp	r3, #0
  311d78:	dda9      	ble.n	311cce <draw_ellipse+0x10e>
  311d7a:	3c01      	subs	r4, #1
  311d7c:	9a0a      	ldr	r2, [sp, #40]	; 0x28
  311d7e:	9906      	ldr	r1, [sp, #24]
  311d80:	1a52      	subs	r2, r2, r1
  311d82:	920a      	str	r2, [sp, #40]	; 0x28
  311d84:	9a03      	ldr	r2, [sp, #12]
  311d86:	1a9b      	subs	r3, r3, r2
  311d88:	9303      	str	r3, [sp, #12]
  311d8a:	9b09      	ldr	r3, [sp, #36]	; 0x24
  311d8c:	468c      	mov	ip, r1
  311d8e:	4463      	add	r3, ip
  311d90:	9309      	str	r3, [sp, #36]	; 0x24
  311d92:	e79c      	b.n	311cce <draw_ellipse+0x10e>
  311d94:	b00f      	add	sp, #60	; 0x3c
  311d96:	bdf0      	pop	{r4, r5, r6, r7, pc}

00311d98 <draw_string_clipped>:
  311d98:	b5f7      	push	{r0, r1, r2, r4, r5, r6, r7, lr}
  311d9a:	9000      	str	r0, [sp, #0]
  311d9c:	9101      	str	r1, [sp, #4]
  311d9e:	0015      	movs	r5, r2
  311da0:	001f      	movs	r7, r3
  311da2:	0004      	movs	r4, r0
  311da4:	782a      	ldrb	r2, [r5, #0]
  311da6:	2a00      	cmp	r2, #0
  311da8:	d020      	beq.n	311dec <draw_string_clipped+0x54>
  311daa:	2a0a      	cmp	r2, #10
  311dac:	d01e      	beq.n	311dec <draw_string_clipped+0x54>
  311dae:	9b00      	ldr	r3, [sp, #0]
  311db0:	9908      	ldr	r1, [sp, #32]
  311db2:	185b      	adds	r3, r3, r1
  311db4:	1b1b      	subs	r3, r3, r4
  311db6:	2b07      	cmp	r3, #7
  311db8:	dd18      	ble.n	311dec <draw_string_clipped+0x54>
  311dba:	003b      	movs	r3, r7
  311dbc:	9901      	ldr	r1, [sp, #4]
  311dbe:	0020      	movs	r0, r4
  311dc0:	f7ff fdda 	bl	311978 <draw_char>
  311dc4:	3501      	adds	r5, #1
  311dc6:	0026      	movs	r6, r4
  311dc8:	3608      	adds	r6, #8
  311dca:	4b09      	ldr	r3, [pc, #36]	; (311df0 <draw_string_clipped+0x58>)
  311dcc:	681b      	ldr	r3, [r3, #0]
  311dce:	429e      	cmp	r6, r3
  311dd0:	db0a      	blt.n	311de8 <draw_string_clipped+0x50>
  311dd2:	782b      	ldrb	r3, [r5, #0]
  311dd4:	2b00      	cmp	r3, #0
  311dd6:	d007      	beq.n	311de8 <draw_string_clipped+0x50>
  311dd8:	003b      	movs	r3, r7
  311dda:	223e      	movs	r2, #62	; 0x3e
  311ddc:	9901      	ldr	r1, [sp, #4]
  311dde:	0020      	movs	r0, r4
  311de0:	f7ff fdca 	bl	311978 <draw_char>
  311de4:	0034      	movs	r4, r6
  311de6:	e001      	b.n	311dec <draw_string_clipped+0x54>
  311de8:	0034      	movs	r4, r6
  311dea:	e7db      	b.n	311da4 <draw_string_clipped+0xc>
  311dec:	0020      	movs	r0, r4
  311dee:	bdfe      	pop	{r1, r2, r3, r4, r5, r6, r7, pc}
  311df0:	0032b870 	.word	0x0032b870

00311df4 <draw_string>:
  311df4:	b513      	push	{r0, r1, r4, lr}
  311df6:	4c03      	ldr	r4, [pc, #12]	; (311e04 <draw_string+0x10>)
  311df8:	6824      	ldr	r4, [r4, #0]
  311dfa:	9400      	str	r4, [sp, #0]
  311dfc:	f7ff ffcc 	bl	311d98 <draw_string_clipped>
  311e00:	bd16      	pop	{r1, r2, r4, pc}
  311e02:	46c0      	nop			; (mov r8, r8)
  311e04:	0032b870 	.word	0x0032b870

00311e08 <draw_button>:
  311e08:	b5f0      	push	{r4, r5, r6, r7, lr}
  311e0a:	b085      	sub	sp, #20
  311e0c:	0006      	movs	r6, r0
  311e0e:	000d      	movs	r5, r1
  311e10:	001f      	movs	r7, r3
  311e12:	4b1a      	ldr	r3, [pc, #104]	; (311e7c <draw_button+0x74>)
  311e14:	990a      	ldr	r1, [sp, #40]	; 0x28
  311e16:	2900      	cmp	r1, #0
  311e18:	d004      	beq.n	311e24 <draw_button+0x1c>
  311e1a:	6819      	ldr	r1, [r3, #0]
  311e1c:	2403      	movs	r4, #3
  311e1e:	570c      	ldrsb	r4, [r1, r4]
  311e20:	0224      	lsls	r4, r4, #8
  311e22:	e000      	b.n	311e26 <draw_button+0x1e>
  311e24:	4c16      	ldr	r4, [pc, #88]	; (311e80 <draw_button+0x78>)
  311e26:	681b      	ldr	r3, [r3, #0]
  311e28:	789b      	ldrb	r3, [r3, #2]
  311e2a:	431c      	orrs	r4, r3
  311e2c:	0424      	lsls	r4, r4, #16
  311e2e:	0c24      	lsrs	r4, r4, #16
  311e30:	00d3      	lsls	r3, r2, #3
  311e32:	9302      	str	r3, [sp, #8]
  311e34:	002b      	movs	r3, r5
  311e36:	3312      	adds	r3, #18
  311e38:	9303      	str	r3, [sp, #12]
  311e3a:	9a02      	ldr	r2, [sp, #8]
  311e3c:	1992      	adds	r2, r2, r6
  311e3e:	3202      	adds	r2, #2
  311e40:	1ea9      	subs	r1, r5, #2
  311e42:	1eb0      	subs	r0, r6, #2
  311e44:	2319      	movs	r3, #25
  311e46:	9301      	str	r3, [sp, #4]
  311e48:	9400      	str	r4, [sp, #0]
  311e4a:	9b03      	ldr	r3, [sp, #12]
  311e4c:	f7ff fc64 	bl	311718 <draw_rectangle>
  311e50:	0038      	movs	r0, r7
  311e52:	f008 fcdd 	bl	31a810 <lang_str>
  311e56:	f011 ff31 	bl	323cbc <__strlen_from_thumb>
  311e5a:	00c0      	lsls	r0, r0, #3
  311e5c:	9b02      	ldr	r3, [sp, #8]
  311e5e:	1a18      	subs	r0, r3, r0
  311e60:	1040      	asrs	r0, r0, #1
  311e62:	1986      	adds	r6, r0, r6
  311e64:	0038      	movs	r0, r7
  311e66:	f008 fcd3 	bl	31a810 <lang_str>
  311e6a:	0002      	movs	r2, r0
  311e6c:	0023      	movs	r3, r4
  311e6e:	0029      	movs	r1, r5
  311e70:	0030      	movs	r0, r6
  311e72:	f7ff ffbf 	bl	311df4 <draw_string>
  311e76:	b005      	add	sp, #20
  311e78:	bdf0      	pop	{r4, r5, r6, r7, pc}
  311e7a:	46c0      	nop			; (mov r8, r8)
  311e7c:	0032866c 	.word	0x0032866c
  311e80:	ffffff00 	.word	0xffffff00

00311e84 <draw_string_justified>:
  311e84:	b5f0      	push	{r4, r5, r6, r7, lr}
  311e86:	b087      	sub	sp, #28
  311e88:	0004      	movs	r4, r0
  311e8a:	000d      	movs	r5, r1
  311e8c:	0016      	movs	r6, r2
  311e8e:	9303      	str	r3, [sp, #12]
  311e90:	9f0d      	ldr	r7, [sp, #52]	; 0x34
  311e92:	210a      	movs	r1, #10
  311e94:	0010      	movs	r0, r2
  311e96:	f011 fd87 	bl	3239a8 <__strchr_from_thumb>
  311e9a:	2800      	cmp	r0, #0
  311e9c:	d001      	beq.n	311ea2 <draw_string_justified+0x1e>
  311e9e:	1b80      	subs	r0, r0, r6
  311ea0:	e002      	b.n	311ea8 <draw_string_justified+0x24>
  311ea2:	0030      	movs	r0, r6
  311ea4:	f011 ff0a 	bl	323cbc <__strlen_from_thumb>
  311ea8:	00c0      	lsls	r0, r0, #3
  311eaa:	42b8      	cmp	r0, r7
  311eac:	dd00      	ble.n	311eb0 <draw_string_justified+0x2c>
  311eae:	0038      	movs	r0, r7
  311eb0:	230f      	movs	r3, #15
  311eb2:	9a0e      	ldr	r2, [sp, #56]	; 0x38
  311eb4:	4013      	ands	r3, r2
  311eb6:	2b01      	cmp	r3, #1
  311eb8:	d003      	beq.n	311ec2 <draw_string_justified+0x3e>
  311eba:	2b02      	cmp	r3, #2
  311ebc:	d104      	bne.n	311ec8 <draw_string_justified+0x44>
  311ebe:	1a3b      	subs	r3, r7, r0
  311ec0:	e001      	b.n	311ec6 <draw_string_justified+0x42>
  311ec2:	1a38      	subs	r0, r7, r0
  311ec4:	1043      	asrs	r3, r0, #1
  311ec6:	930c      	str	r3, [sp, #48]	; 0x30
  311ec8:	2310      	movs	r3, #16
  311eca:	9a0e      	ldr	r2, [sp, #56]	; 0x38
  311ecc:	401a      	ands	r2, r3
  311ece:	9204      	str	r2, [sp, #16]
  311ed0:	d00e      	beq.n	311ef0 <draw_string_justified+0x6c>
  311ed2:	9b0c      	ldr	r3, [sp, #48]	; 0x30
  311ed4:	2b00      	cmp	r3, #0
  311ed6:	dd0b      	ble.n	311ef0 <draw_string_justified+0x6c>
  311ed8:	191a      	adds	r2, r3, r4
  311eda:	3a01      	subs	r2, #1
  311edc:	2308      	movs	r3, #8
  311ede:	9301      	str	r3, [sp, #4]
  311ee0:	9b03      	ldr	r3, [sp, #12]
  311ee2:	9300      	str	r3, [sp, #0]
  311ee4:	002b      	movs	r3, r5
  311ee6:	330f      	adds	r3, #15
  311ee8:	0029      	movs	r1, r5
  311eea:	0020      	movs	r0, r4
  311eec:	f7ff fc14 	bl	311718 <draw_rectangle>
  311ef0:	9b0c      	ldr	r3, [sp, #48]	; 0x30
  311ef2:	191b      	adds	r3, r3, r4
  311ef4:	9305      	str	r3, [sp, #20]
  311ef6:	9b0c      	ldr	r3, [sp, #48]	; 0x30
  311ef8:	1af8      	subs	r0, r7, r3
  311efa:	9000      	str	r0, [sp, #0]
  311efc:	9b03      	ldr	r3, [sp, #12]
  311efe:	0032      	movs	r2, r6
  311f00:	0029      	movs	r1, r5
  311f02:	9805      	ldr	r0, [sp, #20]
  311f04:	f7ff ff48 	bl	311d98 <draw_string_clipped>
  311f08:	9b04      	ldr	r3, [sp, #16]
  311f0a:	2b00      	cmp	r3, #0
  311f0c:	d00d      	beq.n	311f2a <draw_string_justified+0xa6>
  311f0e:	1b03      	subs	r3, r0, r4
  311f10:	429f      	cmp	r7, r3
  311f12:	dd0a      	ble.n	311f2a <draw_string_justified+0xa6>
  311f14:	002b      	movs	r3, r5
  311f16:	330f      	adds	r3, #15
  311f18:	193c      	adds	r4, r7, r4
  311f1a:	1e62      	subs	r2, r4, #1
  311f1c:	2108      	movs	r1, #8
  311f1e:	9101      	str	r1, [sp, #4]
  311f20:	9903      	ldr	r1, [sp, #12]
  311f22:	9100      	str	r1, [sp, #0]
  311f24:	0029      	movs	r1, r5
  311f26:	f7ff fbf7 	bl	311718 <draw_rectangle>
  311f2a:	9805      	ldr	r0, [sp, #20]
  311f2c:	b007      	add	sp, #28
  311f2e:	bdf0      	pop	{r4, r5, r6, r7, pc}

00311f30 <text_dimensions>:
  311f30:	b5f7      	push	{r0, r1, r2, r4, r5, r6, r7, lr}
  311f32:	0004      	movs	r4, r0
  311f34:	9100      	str	r1, [sp, #0]
  311f36:	9201      	str	r2, [sp, #4]
  311f38:	001f      	movs	r7, r3
  311f3a:	2500      	movs	r5, #0
  311f3c:	2c00      	cmp	r4, #0
  311f3e:	d106      	bne.n	311f4e <text_dimensions+0x1e>
  311f40:	603d      	str	r5, [r7, #0]
  311f42:	9800      	ldr	r0, [sp, #0]
  311f44:	9b01      	ldr	r3, [sp, #4]
  311f46:	4298      	cmp	r0, r3
  311f48:	dd1a      	ble.n	311f80 <text_dimensions+0x50>
  311f4a:	0018      	movs	r0, r3
  311f4c:	e018      	b.n	311f80 <text_dimensions+0x50>
  311f4e:	7823      	ldrb	r3, [r4, #0]
  311f50:	2b00      	cmp	r3, #0
  311f52:	d0f5      	beq.n	311f40 <text_dimensions+0x10>
  311f54:	683b      	ldr	r3, [r7, #0]
  311f56:	429d      	cmp	r5, r3
  311f58:	daf2      	bge.n	311f40 <text_dimensions+0x10>
  311f5a:	210a      	movs	r1, #10
  311f5c:	0020      	movs	r0, r4
  311f5e:	f011 fd23 	bl	3239a8 <__strchr_from_thumb>
  311f62:	1e06      	subs	r6, r0, #0
  311f64:	d002      	beq.n	311f6c <text_dimensions+0x3c>
  311f66:	1b00      	subs	r0, r0, r4
  311f68:	3601      	adds	r6, #1
  311f6a:	e002      	b.n	311f72 <text_dimensions+0x42>
  311f6c:	0020      	movs	r0, r4
  311f6e:	f011 fea5 	bl	323cbc <__strlen_from_thumb>
  311f72:	9b00      	ldr	r3, [sp, #0]
  311f74:	4283      	cmp	r3, r0
  311f76:	da00      	bge.n	311f7a <text_dimensions+0x4a>
  311f78:	9000      	str	r0, [sp, #0]
  311f7a:	3501      	adds	r5, #1
  311f7c:	0034      	movs	r4, r6
  311f7e:	e7dd      	b.n	311f3c <text_dimensions+0xc>
  311f80:	bdfe      	pop	{r1, r2, r3, r4, r5, r6, r7, pc}

00311f82 <draw_text_justified>:
  311f82:	b5f0      	push	{r4, r5, r6, r7, lr}
  311f84:	b087      	sub	sp, #28
  311f86:	9004      	str	r0, [sp, #16]
  311f88:	000f      	movs	r7, r1
  311f8a:	0014      	movs	r4, r2
  311f8c:	9305      	str	r3, [sp, #20]
  311f8e:	9b0c      	ldr	r3, [sp, #48]	; 0x30
  311f90:	00de      	lsls	r6, r3, #3
  311f92:	2000      	movs	r0, #0
  311f94:	2c00      	cmp	r4, #0
  311f96:	d01e      	beq.n	311fd6 <draw_text_justified+0x54>
  311f98:	7823      	ldrb	r3, [r4, #0]
  311f9a:	2b00      	cmp	r3, #0
  311f9c:	d01b      	beq.n	311fd6 <draw_text_justified+0x54>
  311f9e:	9b0d      	ldr	r3, [sp, #52]	; 0x34
  311fa0:	2b00      	cmp	r3, #0
  311fa2:	dd18      	ble.n	311fd6 <draw_text_justified+0x54>
  311fa4:	210a      	movs	r1, #10
  311fa6:	0020      	movs	r0, r4
  311fa8:	f011 fcfe 	bl	3239a8 <__strchr_from_thumb>
  311fac:	0003      	movs	r3, r0
  311fae:	1e5a      	subs	r2, r3, #1
  311fb0:	4193      	sbcs	r3, r2
  311fb2:	18c5      	adds	r5, r0, r3
  311fb4:	9b0e      	ldr	r3, [sp, #56]	; 0x38
  311fb6:	9302      	str	r3, [sp, #8]
  311fb8:	9601      	str	r6, [sp, #4]
  311fba:	2300      	movs	r3, #0
  311fbc:	9300      	str	r3, [sp, #0]
  311fbe:	9b05      	ldr	r3, [sp, #20]
  311fc0:	0022      	movs	r2, r4
  311fc2:	0039      	movs	r1, r7
  311fc4:	9804      	ldr	r0, [sp, #16]
  311fc6:	f7ff ff5d 	bl	311e84 <draw_string_justified>
  311fca:	3710      	adds	r7, #16
  311fcc:	9b0d      	ldr	r3, [sp, #52]	; 0x34
  311fce:	3b01      	subs	r3, #1
  311fd0:	930d      	str	r3, [sp, #52]	; 0x34
  311fd2:	002c      	movs	r4, r5
  311fd4:	e7de      	b.n	311f94 <draw_text_justified+0x12>
  311fd6:	b007      	add	sp, #28
  311fd8:	bdf0      	pop	{r4, r5, r6, r7, pc}

00311fda <draw_txt_string>:
  311fda:	b510      	push	{r4, lr}
  311fdc:	0109      	lsls	r1, r1, #4
  311fde:	00c0      	lsls	r0, r0, #3
  311fe0:	f7ff ff08 	bl	311df4 <draw_string>
  311fe4:	bd10      	pop	{r4, pc}

00311fe6 <draw_progress_bar>:
  311fe6:	b57f      	push	{r0, r1, r2, r3, r4, r5, r6, lr}
  311fe8:	0006      	movs	r6, r0
  311fea:	000d      	movs	r5, r1
  311fec:	4c21      	ldr	r4, [pc, #132]	; (312074 <draw_progress_bar+0x8e>)
  311fee:	6822      	ldr	r2, [r4, #0]
  311ff0:	2339      	movs	r3, #57	; 0x39
  311ff2:	9301      	str	r3, [sp, #4]
  311ff4:	7b13      	ldrb	r3, [r2, #12]
  311ff6:	021b      	lsls	r3, r3, #8
  311ff8:	7892      	ldrb	r2, [r2, #2]
  311ffa:	4313      	orrs	r3, r2
  311ffc:	9300      	str	r3, [sp, #0]
  311ffe:	238c      	movs	r3, #140	; 0x8c
  312000:	2296      	movs	r2, #150	; 0x96
  312002:	0052      	lsls	r2, r2, #1
  312004:	2164      	movs	r1, #100	; 0x64
  312006:	203c      	movs	r0, #60	; 0x3c
  312008:	f7ff fb86 	bl	311718 <draw_rectangle>
  31200c:	6822      	ldr	r2, [r4, #0]
  31200e:	7b13      	ldrb	r3, [r2, #12]
  312010:	021b      	lsls	r3, r3, #8
  312012:	7892      	ldrb	r2, [r2, #2]
  312014:	4313      	orrs	r3, r2
  312016:	2201      	movs	r2, #1
  312018:	9202      	str	r2, [sp, #8]
  31201a:	32ef      	adds	r2, #239	; 0xef
  31201c:	9201      	str	r2, [sp, #4]
  31201e:	2200      	movs	r2, #0
  312020:	9200      	str	r2, [sp, #0]
  312022:	0032      	movs	r2, r6
  312024:	2166      	movs	r1, #102	; 0x66
  312026:	203c      	movs	r0, #60	; 0x3c
  312028:	f7ff ff2c 	bl	311e84 <draw_string_justified>
  31202c:	2309      	movs	r3, #9
  31202e:	9301      	str	r3, [sp, #4]
  312030:	6823      	ldr	r3, [r4, #0]
  312032:	789a      	ldrb	r2, [r3, #2]
  312034:	23ff      	movs	r3, #255	; 0xff
  312036:	021b      	lsls	r3, r3, #8
  312038:	4313      	orrs	r3, r2
  31203a:	9300      	str	r3, [sp, #0]
  31203c:	2382      	movs	r3, #130	; 0x82
  31203e:	2291      	movs	r2, #145	; 0x91
  312040:	0052      	lsls	r2, r2, #1
  312042:	2178      	movs	r1, #120	; 0x78
  312044:	2046      	movs	r0, #70	; 0x46
  312046:	f7ff fb67 	bl	311718 <draw_rectangle>
  31204a:	6823      	ldr	r3, [r4, #0]
  31204c:	78dc      	ldrb	r4, [r3, #3]
  31204e:	23da      	movs	r3, #218	; 0xda
  312050:	0018      	movs	r0, r3
  312052:	4368      	muls	r0, r5
  312054:	2164      	movs	r1, #100	; 0x64
  312056:	f011 fe61 	bl	323d1c <____aeabi_uidiv_from_thumb>
  31205a:	0002      	movs	r2, r0
  31205c:	3247      	adds	r2, #71	; 0x47
  31205e:	2308      	movs	r3, #8
  312060:	9301      	str	r3, [sp, #4]
  312062:	0223      	lsls	r3, r4, #8
  312064:	431c      	orrs	r4, r3
  312066:	9400      	str	r4, [sp, #0]
  312068:	2381      	movs	r3, #129	; 0x81
  31206a:	2179      	movs	r1, #121	; 0x79
  31206c:	2047      	movs	r0, #71	; 0x47
  31206e:	f7ff fb53 	bl	311718 <draw_rectangle>
  312072:	bd7f      	pop	{r0, r1, r2, r3, r4, r5, r6, pc}
  312074:	0032866c 	.word	0x0032866c

00312078 <draw_string_scaled>:
  312078:	b5f0      	push	{r4, r5, r6, r7, lr}
  31207a:	b085      	sub	sp, #20
  31207c:	0004      	movs	r4, r0
  31207e:	000e      	movs	r6, r1
  312080:	0015      	movs	r5, r2
  312082:	001f      	movs	r7, r3
  312084:	9b0a      	ldr	r3, [sp, #40]	; 0x28
  312086:	00db      	lsls	r3, r3, #3
  312088:	9303      	str	r3, [sp, #12]
  31208a:	782a      	ldrb	r2, [r5, #0]
  31208c:	2a00      	cmp	r2, #0
  31208e:	d021      	beq.n	3120d4 <draw_string_scaled+0x5c>
  312090:	2a0a      	cmp	r2, #10
  312092:	d01f      	beq.n	3120d4 <draw_string_scaled+0x5c>
  312094:	9b0b      	ldr	r3, [sp, #44]	; 0x2c
  312096:	9301      	str	r3, [sp, #4]
  312098:	9b0a      	ldr	r3, [sp, #40]	; 0x28
  31209a:	9300      	str	r3, [sp, #0]
  31209c:	003b      	movs	r3, r7
  31209e:	0031      	movs	r1, r6
  3120a0:	0020      	movs	r0, r4
  3120a2:	f7ff fcd5 	bl	311a50 <draw_char_scaled>
  3120a6:	3501      	adds	r5, #1
  3120a8:	9b03      	ldr	r3, [sp, #12]
  3120aa:	18e3      	adds	r3, r4, r3
  3120ac:	4a0a      	ldr	r2, [pc, #40]	; (3120d8 <draw_string_scaled+0x60>)
  3120ae:	6812      	ldr	r2, [r2, #0]
  3120b0:	4293      	cmp	r3, r2
  3120b2:	db0d      	blt.n	3120d0 <draw_string_scaled+0x58>
  3120b4:	782a      	ldrb	r2, [r5, #0]
  3120b6:	2a00      	cmp	r2, #0
  3120b8:	d00a      	beq.n	3120d0 <draw_string_scaled+0x58>
  3120ba:	9b0b      	ldr	r3, [sp, #44]	; 0x2c
  3120bc:	9301      	str	r3, [sp, #4]
  3120be:	9b0a      	ldr	r3, [sp, #40]	; 0x28
  3120c0:	9300      	str	r3, [sp, #0]
  3120c2:	003b      	movs	r3, r7
  3120c4:	223e      	movs	r2, #62	; 0x3e
  3120c6:	0031      	movs	r1, r6
  3120c8:	0020      	movs	r0, r4
  3120ca:	f7ff fcc1 	bl	311a50 <draw_char_scaled>
  3120ce:	e001      	b.n	3120d4 <draw_string_scaled+0x5c>
  3120d0:	001c      	movs	r4, r3
  3120d2:	e7da      	b.n	31208a <draw_string_scaled+0x12>
  3120d4:	b005      	add	sp, #20
  3120d6:	bdf0      	pop	{r4, r5, r6, r7, pc}
  3120d8:	0032b870 	.word	0x0032b870

003120dc <draw_osd_string>:
  3120dc:	b5f0      	push	{r4, r5, r6, r7, lr}
  3120de:	b085      	sub	sp, #20
  3120e0:	1c04      	adds	r4, r0, #0
  3120e2:	0005      	movs	r5, r0
  3120e4:	9003      	str	r0, [sp, #12]
  3120e6:	0008      	movs	r0, r1
  3120e8:	0017      	movs	r7, r2
  3120ea:	001a      	movs	r2, r3
  3120ec:	ab0a      	add	r3, sp, #40	; 0x28
  3120ee:	881b      	ldrh	r3, [r3, #0]
  3120f0:	0424      	lsls	r4, r4, #16
  3120f2:	0c24      	lsrs	r4, r4, #16
  3120f4:	0c2d      	lsrs	r5, r5, #16
  3120f6:	a90b      	add	r1, sp, #44	; 0x2c
  3120f8:	880e      	ldrh	r6, [r1, #0]
  3120fa:	2e00      	cmp	r6, #0
  3120fc:	d006      	beq.n	31210c <draw_osd_string+0x30>
  3120fe:	8849      	ldrh	r1, [r1, #2]
  312100:	2900      	cmp	r1, #0
  312102:	d003      	beq.n	31210c <draw_osd_string+0x30>
  312104:	2e01      	cmp	r6, #1
  312106:	d106      	bne.n	312116 <draw_osd_string+0x3a>
  312108:	2901      	cmp	r1, #1
  31210a:	d104      	bne.n	312116 <draw_osd_string+0x3a>
  31210c:	19e9      	adds	r1, r5, r7
  31210e:	1820      	adds	r0, r4, r0
  312110:	f7ff fe70 	bl	311df4 <draw_string>
  312114:	e008      	b.n	312128 <draw_osd_string+0x4c>
  312116:	434f      	muls	r7, r1
  312118:	197d      	adds	r5, r7, r5
  31211a:	4370      	muls	r0, r6
  31211c:	1900      	adds	r0, r0, r4
  31211e:	9101      	str	r1, [sp, #4]
  312120:	9600      	str	r6, [sp, #0]
  312122:	0029      	movs	r1, r5
  312124:	f7ff ffa8 	bl	312078 <draw_string_scaled>
  312128:	b005      	add	sp, #20
  31212a:	bdf0      	pop	{r4, r5, r6, r7, pc}

0031212c <chdk_heap_init>:
  31212c:	2300      	movs	r3, #0
  31212e:	6003      	str	r3, [r0, #0]
  312130:	6043      	str	r3, [r0, #4]
  312132:	6083      	str	r3, [r0, #8]
  312134:	60c3      	str	r3, [r0, #12]
  312136:	4770      	bx	lr

00312138 <combine_meminfo>:
  312138:	6883      	ldr	r3, [r0, #8]
  31213a:	688a      	ldr	r2, [r1, #8]
  31213c:	189b      	adds	r3, r3, r2
  31213e:	6083      	str	r3, [r0, #8]
  312140:	69cb      	ldr	r3, [r1, #28]
  312142:	69c2      	ldr	r2, [r0, #28]
  312144:	4293      	cmp	r3, r2
  312146:	dd00      	ble.n	31214a <combine_meminfo+0x12>
  312148:	61c3      	str	r3, [r0, #28]
  31214a:	6983      	ldr	r3, [r0, #24]
  31214c:	698a      	ldr	r2, [r1, #24]
  31214e:	189b      	adds	r3, r3, r2
  312150:	6183      	str	r3, [r0, #24]
  312152:	6a03      	ldr	r3, [r0, #32]
  312154:	6a0a      	ldr	r2, [r1, #32]
  312156:	189b      	adds	r3, r3, r2
  312158:	6203      	str	r3, [r0, #32]
  31215a:	68c3      	ldr	r3, [r0, #12]
  31215c:	68ca      	ldr	r2, [r1, #12]
  31215e:	189b      	adds	r3, r3, r2
  312160:	60c3      	str	r3, [r0, #12]
  312162:	6903      	ldr	r3, [r0, #16]
  312164:	690a      	ldr	r2, [r1, #16]
  312166:	189b      	adds	r3, r3, r2
  312168:	6103      	str	r3, [r0, #16]
  31216a:	694b      	ldr	r3, [r1, #20]
  31216c:	6942      	ldr	r2, [r0, #20]
  31216e:	18d3      	adds	r3, r2, r3
  312170:	6143      	str	r3, [r0, #20]
  312172:	4770      	bx	lr

00312174 <chdk_meminfo>:
  312174:	b530      	push	{r4, r5, lr}
  312176:	b085      	sub	sp, #20
  312178:	0005      	movs	r5, r0
  31217a:	0008      	movs	r0, r1
  31217c:	2d00      	cmp	r5, #0
  31217e:	d019      	beq.n	3121b4 <chdk_meminfo+0x40>
  312180:	682b      	ldr	r3, [r5, #0]
  312182:	2b00      	cmp	r3, #0
  312184:	d016      	beq.n	3121b4 <chdk_meminfo+0x40>
  312186:	686b      	ldr	r3, [r5, #4]
  312188:	600b      	str	r3, [r1, #0]
  31218a:	68ab      	ldr	r3, [r5, #8]
  31218c:	604b      	str	r3, [r1, #4]
  31218e:	68eb      	ldr	r3, [r5, #12]
  312190:	608b      	str	r3, [r1, #8]
  312192:	000b      	movs	r3, r1
  312194:	3314      	adds	r3, #20
  312196:	000a      	movs	r2, r1
  312198:	3210      	adds	r2, #16
  31219a:	310c      	adds	r1, #12
  31219c:	0004      	movs	r4, r0
  31219e:	3420      	adds	r4, #32
  3121a0:	9402      	str	r4, [sp, #8]
  3121a2:	3c04      	subs	r4, #4
  3121a4:	9401      	str	r4, [sp, #4]
  3121a6:	3018      	adds	r0, #24
  3121a8:	9000      	str	r0, [sp, #0]
  3121aa:	6828      	ldr	r0, [r5, #0]
  3121ac:	f00b fbc4 	bl	31d938 <suba_getmeminfo>
  3121b0:	2001      	movs	r0, #1
  3121b2:	e004      	b.n	3121be <chdk_meminfo+0x4a>
  3121b4:	2224      	movs	r2, #36	; 0x24
  3121b6:	2100      	movs	r1, #0
  3121b8:	f011 fb94 	bl	3238e4 <__memset_from_thumb>
  3121bc:	2000      	movs	r0, #0
  3121be:	b005      	add	sp, #20
  3121c0:	bd30      	pop	{r4, r5, pc}

003121c2 <chdk_malloc>:
  3121c2:	b510      	push	{r4, lr}
  3121c4:	2800      	cmp	r0, #0
  3121c6:	d005      	beq.n	3121d4 <chdk_malloc+0x12>
  3121c8:	6800      	ldr	r0, [r0, #0]
  3121ca:	2800      	cmp	r0, #0
  3121cc:	d002      	beq.n	3121d4 <chdk_malloc+0x12>
  3121ce:	2200      	movs	r2, #0
  3121d0:	f00b fc50 	bl	31da74 <suba_alloc>
  3121d4:	bd10      	pop	{r4, pc}

003121d6 <chdk_free>:
  3121d6:	b510      	push	{r4, lr}
  3121d8:	0003      	movs	r3, r0
  3121da:	1e02      	subs	r2, r0, #0
  3121dc:	d00c      	beq.n	3121f8 <chdk_free+0x22>
  3121de:	6800      	ldr	r0, [r0, #0]
  3121e0:	1e02      	subs	r2, r0, #0
  3121e2:	d009      	beq.n	3121f8 <chdk_free+0x22>
  3121e4:	2200      	movs	r2, #0
  3121e6:	685c      	ldr	r4, [r3, #4]
  3121e8:	428c      	cmp	r4, r1
  3121ea:	d805      	bhi.n	3121f8 <chdk_free+0x22>
  3121ec:	689b      	ldr	r3, [r3, #8]
  3121ee:	4299      	cmp	r1, r3
  3121f0:	d202      	bcs.n	3121f8 <chdk_free+0x22>
  3121f2:	f00b fcb7 	bl	31db64 <suba_free>
  3121f6:	2201      	movs	r2, #1
  3121f8:	0010      	movs	r0, r2
  3121fa:	bd10      	pop	{r4, pc}

003121fc <chdk_heap_create.constprop.0>:
  3121fc:	b510      	push	{r4, lr}
  3121fe:	4b0b      	ldr	r3, [pc, #44]	; (31222c <chdk_heap_create.constprop.0+0x30>)
  312200:	6b59      	ldr	r1, [r3, #52]	; 0x34
  312202:	3103      	adds	r1, #3
  312204:	2303      	movs	r3, #3
  312206:	4399      	bics	r1, r3
  312208:	4b09      	ldr	r3, [pc, #36]	; (312230 <chdk_heap_create.constprop.0+0x34>)
  31220a:	18c8      	adds	r0, r1, r3
  31220c:	4c09      	ldr	r4, [pc, #36]	; (312234 <chdk_heap_create.constprop.0+0x38>)
  31220e:	6060      	str	r0, [r4, #4]
  312210:	23c8      	movs	r3, #200	; 0xc8
  312212:	029b      	lsls	r3, r3, #10
  312214:	1a59      	subs	r1, r3, r1
  312216:	60e1      	str	r1, [r4, #12]
  312218:	23d0      	movs	r3, #208	; 0xd0
  31221a:	039b      	lsls	r3, r3, #14
  31221c:	60a3      	str	r3, [r4, #8]
  31221e:	4b06      	ldr	r3, [pc, #24]	; (312238 <chdk_heap_create.constprop.0+0x3c>)
  312220:	2208      	movs	r2, #8
  312222:	f00b fbdb 	bl	31d9dc <suba_init>
  312226:	6020      	str	r0, [r4, #0]
  312228:	bd10      	pop	{r4, pc}
  31222a:	46c0      	nop			; (mov r8, r8)
  31222c:	0032b718 	.word	0x0032b718
  312230:	0030e000 	.word	0x0030e000
  312234:	0032e448 	.word	0x0032e448
  312238:	003241c5 	.word	0x003241c5

0031223c <exmem_malloc_init>:
  31223c:	b510      	push	{r4, lr}
  31223e:	4802      	ldr	r0, [pc, #8]	; (312248 <exmem_malloc_init+0xc>)
  312240:	3010      	adds	r0, #16
  312242:	f7ff ff73 	bl	31212c <chdk_heap_init>
  312246:	bd10      	pop	{r4, pc}
  312248:	0032e448 	.word	0x0032e448

0031224c <GetExMemInfo>:
  31224c:	b510      	push	{r4, lr}
  31224e:	0001      	movs	r1, r0
  312250:	4802      	ldr	r0, [pc, #8]	; (31225c <GetExMemInfo+0x10>)
  312252:	3010      	adds	r0, #16
  312254:	f7ff ff8e 	bl	312174 <chdk_meminfo>
  312258:	bd10      	pop	{r4, pc}
  31225a:	46c0      	nop			; (mov r8, r8)
  31225c:	0032e448 	.word	0x0032e448

00312260 <aram_malloc_init>:
  312260:	b510      	push	{r4, lr}
  312262:	4803      	ldr	r0, [pc, #12]	; (312270 <aram_malloc_init+0x10>)
  312264:	f7ff ff62 	bl	31212c <chdk_heap_init>
  312268:	f7ff ffc8 	bl	3121fc <chdk_heap_create.constprop.0>
  31226c:	bd10      	pop	{r4, pc}
  31226e:	46c0      	nop			; (mov r8, r8)
  312270:	0032e448 	.word	0x0032e448

00312274 <GetARamInfo>:
  312274:	b510      	push	{r4, lr}
  312276:	0001      	movs	r1, r0
  312278:	4801      	ldr	r0, [pc, #4]	; (312280 <GetARamInfo+0xc>)
  31227a:	f7ff ff7b 	bl	312174 <chdk_meminfo>
  31227e:	bd10      	pop	{r4, pc}
  312280:	0032e448 	.word	0x0032e448

00312284 <GetCombinedMemInfo>:
  312284:	b510      	push	{r4, lr}
  312286:	b08a      	sub	sp, #40	; 0x28
  312288:	0004      	movs	r4, r0
  31228a:	f011 fbd9 	bl	323a40 <__GetMemInfo_from_thumb>
  31228e:	2300      	movs	r3, #0
  312290:	6063      	str	r3, [r4, #4]
  312292:	6023      	str	r3, [r4, #0]
  312294:	a801      	add	r0, sp, #4
  312296:	f7ff ffed 	bl	312274 <GetARamInfo>
  31229a:	2800      	cmp	r0, #0
  31229c:	d003      	beq.n	3122a6 <GetCombinedMemInfo+0x22>
  31229e:	a901      	add	r1, sp, #4
  3122a0:	0020      	movs	r0, r4
  3122a2:	f7ff ff49 	bl	312138 <combine_meminfo>
  3122a6:	a801      	add	r0, sp, #4
  3122a8:	f7ff ffd0 	bl	31224c <GetExMemInfo>
  3122ac:	2800      	cmp	r0, #0
  3122ae:	d003      	beq.n	3122b8 <GetCombinedMemInfo+0x34>
  3122b0:	a901      	add	r1, sp, #4
  3122b2:	0020      	movs	r0, r4
  3122b4:	f7ff ff40 	bl	312138 <combine_meminfo>
  3122b8:	b00a      	add	sp, #40	; 0x28
  3122ba:	bd10      	pop	{r4, pc}

003122bc <malloc>:
  3122bc:	b570      	push	{r4, r5, r6, lr}
  3122be:	0005      	movs	r5, r0
  3122c0:	4c08      	ldr	r4, [pc, #32]	; (3122e4 <malloc+0x28>)
  3122c2:	0001      	movs	r1, r0
  3122c4:	0020      	movs	r0, r4
  3122c6:	f7ff ff7c 	bl	3121c2 <chdk_malloc>
  3122ca:	2800      	cmp	r0, #0
  3122cc:	d109      	bne.n	3122e2 <malloc+0x26>
  3122ce:	0020      	movs	r0, r4
  3122d0:	3010      	adds	r0, #16
  3122d2:	0029      	movs	r1, r5
  3122d4:	f7ff ff75 	bl	3121c2 <chdk_malloc>
  3122d8:	2800      	cmp	r0, #0
  3122da:	d102      	bne.n	3122e2 <malloc+0x26>
  3122dc:	0028      	movs	r0, r5
  3122de:	f011 fb0f 	bl	323900 <__canon_malloc_from_thumb>
  3122e2:	bd70      	pop	{r4, r5, r6, pc}
  3122e4:	0032e448 	.word	0x0032e448

003122e8 <free>:
  3122e8:	b570      	push	{r4, r5, r6, lr}
  3122ea:	0005      	movs	r5, r0
  3122ec:	4c08      	ldr	r4, [pc, #32]	; (312310 <free+0x28>)
  3122ee:	0001      	movs	r1, r0
  3122f0:	0020      	movs	r0, r4
  3122f2:	f7ff ff70 	bl	3121d6 <chdk_free>
  3122f6:	2800      	cmp	r0, #0
  3122f8:	d109      	bne.n	31230e <free+0x26>
  3122fa:	0020      	movs	r0, r4
  3122fc:	3010      	adds	r0, #16
  3122fe:	0029      	movs	r1, r5
  312300:	f7ff ff69 	bl	3121d6 <chdk_free>
  312304:	2800      	cmp	r0, #0
  312306:	d102      	bne.n	31230e <free+0x26>
